(lp0
ccopy_reg
_reconstructor
p1
(cpandas.core.panel
Panel
p2
c__builtin__
object
p3
Ntp4
Rp5
g1
(cpandas.core.internals
BlockManager
p6
g3
Ntp7
Rp8
((lp9
cnumpy.core.multiarray
_reconstruct
p10
(cpandas.core.index
Int64Index
p11
(I0
tp12
S'b'
p13
tp14
Rp15
((I1
(I17
tp16
cnumpy
dtype
p17
(S'i8'
p18
I0
I1
tp19
Rp20
(I3
S'<'
p21
NNNI-1
I-1
I0
tp22
bI00
S'\x00\x00\x00\x00\x00\x00\x00\x00\x01\x00\x00\x00\x00\x00\x00\x00\x02\x00\x00\x00\x00\x00\x00\x00\x03\x00\x00\x00\x00\x00\x00\x00\x04\x00\x00\x00\x00\x00\x00\x00\x05\x00\x00\x00\x00\x00\x00\x00\x06\x00\x00\x00\x00\x00\x00\x00\x07\x00\x00\x00\x00\x00\x00\x00\x08\x00\x00\x00\x00\x00\x00\x00\t\x00\x00\x00\x00\x00\x00\x00\n\x00\x00\x00\x00\x00\x00\x00\x0b\x00\x00\x00\x00\x00\x00\x00\x0c\x00\x00\x00\x00\x00\x00\x00\r\x00\x00\x00\x00\x00\x00\x00\x0e\x00\x00\x00\x00\x00\x00\x00\x0f\x00\x00\x00\x00\x00\x00\x00\x10\x00\x00\x00\x00\x00\x00\x00'
p23
tp24
(Ntp25
tp26
bag10
(g11
(I0
tp27
g13
tp28
Rp29
((I1
(I100
tp30
g20
I00
S'\x00\x00\x00\x00\x00\x00\x00\x00\x01\x00\x00\x00\x00\x00\x00\x00\x02\x00\x00\x00\x00\x00\x00\x00\x03\x00\x00\x00\x00\x00\x00\x00\x04\x00\x00\x00\x00\x00\x00\x00\x05\x00\x00\x00\x00\x00\x00\x00\x06\x00\x00\x00\x00\x00\x00\x00\x07\x00\x00\x00\x00\x00\x00\x00\x08\x00\x00\x00\x00\x00\x00\x00\t\x00\x00\x00\x00\x00\x00\x00\n\x00\x00\x00\x00\x00\x00\x00\x0b\x00\x00\x00\x00\x00\x00\x00\x0c\x00\x00\x00\x00\x00\x00\x00\r\x00\x00\x00\x00\x00\x00\x00\x0e\x00\x00\x00\x00\x00\x00\x00\x0f\x00\x00\x00\x00\x00\x00\x00\x10\x00\x00\x00\x00\x00\x00\x00\x11\x00\x00\x00\x00\x00\x00\x00\x12\x00\x00\x00\x00\x00\x00\x00\x13\x00\x00\x00\x00\x00\x00\x00\x14\x00\x00\x00\x00\x00\x00\x00\x15\x00\x00\x00\x00\x00\x00\x00\x16\x00\x00\x00\x00\x00\x00\x00\x17\x00\x00\x00\x00\x00\x00\x00\x18\x00\x00\x00\x00\x00\x00\x00\x19\x00\x00\x00\x00\x00\x00\x00\x1a\x00\x00\x00\x00\x00\x00\x00\x1b\x00\x00\x00\x00\x00\x00\x00\x1c\x00\x00\x00\x00\x00\x00\x00\x1d\x00\x00\x00\x00\x00\x00\x00\x1e\x00\x00\x00\x00\x00\x00\x00\x1f\x00\x00\x00\x00\x00\x00\x00 \x00\x00\x00\x00\x00\x00\x00!\x00\x00\x00\x00\x00\x00\x00"\x00\x00\x00\x00\x00\x00\x00#\x00\x00\x00\x00\x00\x00\x00$\x00\x00\x00\x00\x00\x00\x00%\x00\x00\x00\x00\x00\x00\x00&\x00\x00\x00\x00\x00\x00\x00\'\x00\x00\x00\x00\x00\x00\x00(\x00\x00\x00\x00\x00\x00\x00)\x00\x00\x00\x00\x00\x00\x00*\x00\x00\x00\x00\x00\x00\x00+\x00\x00\x00\x00\x00\x00\x00,\x00\x00\x00\x00\x00\x00\x00-\x00\x00\x00\x00\x00\x00\x00.\x00\x00\x00\x00\x00\x00\x00/\x00\x00\x00\x00\x00\x00\x000\x00\x00\x00\x00\x00\x00\x001\x00\x00\x00\x00\x00\x00\x002\x00\x00\x00\x00\x00\x00\x003\x00\x00\x00\x00\x00\x00\x004\x00\x00\x00\x00\x00\x00\x005\x00\x00\x00\x00\x00\x00\x006\x00\x00\x00\x00\x00\x00\x007\x00\x00\x00\x00\x00\x00\x008\x00\x00\x00\x00\x00\x00\x009\x00\x00\x00\x00\x00\x00\x00:\x00\x00\x00\x00\x00\x00\x00;\x00\x00\x00\x00\x00\x00\x00<\x00\x00\x00\x00\x00\x00\x00=\x00\x00\x00\x00\x00\x00\x00>\x00\x00\x00\x00\x00\x00\x00?\x00\x00\x00\x00\x00\x00\x00@\x00\x00\x00\x00\x00\x00\x00A\x00\x00\x00\x00\x00\x00\x00B\x00\x00\x00\x00\x00\x00\x00C\x00\x00\x00\x00\x00\x00\x00D\x00\x00\x00\x00\x00\x00\x00E\x00\x00\x00\x00\x00\x00\x00F\x00\x00\x00\x00\x00\x00\x00G\x00\x00\x00\x00\x00\x00\x00H\x00\x00\x00\x00\x00\x00\x00I\x00\x00\x00\x00\x00\x00\x00J\x00\x00\x00\x00\x00\x00\x00K\x00\x00\x00\x00\x00\x00\x00L\x00\x00\x00\x00\x00\x00\x00M\x00\x00\x00\x00\x00\x00\x00N\x00\x00\x00\x00\x00\x00\x00O\x00\x00\x00\x00\x00\x00\x00P\x00\x00\x00\x00\x00\x00\x00Q\x00\x00\x00\x00\x00\x00\x00R\x00\x00\x00\x00\x00\x00\x00S\x00\x00\x00\x00\x00\x00\x00T\x00\x00\x00\x00\x00\x00\x00U\x00\x00\x00\x00\x00\x00\x00V\x00\x00\x00\x00\x00\x00\x00W\x00\x00\x00\x00\x00\x00\x00X\x00\x00\x00\x00\x00\x00\x00Y\x00\x00\x00\x00\x00\x00\x00Z\x00\x00\x00\x00\x00\x00\x00[\x00\x00\x00\x00\x00\x00\x00\\\x00\x00\x00\x00\x00\x00\x00]\x00\x00\x00\x00\x00\x00\x00^\x00\x00\x00\x00\x00\x00\x00_\x00\x00\x00\x00\x00\x00\x00`\x00\x00\x00\x00\x00\x00\x00a\x00\x00\x00\x00\x00\x00\x00b\x00\x00\x00\x00\x00\x00\x00c\x00\x00\x00\x00\x00\x00\x00'
p31
tp32
(Ntp33
tp34
bag10
(cpandas.core.index
Index
p35
(I0
tp36
g13
tp37
Rp38
((I1
(I2
tp39
g17
(S'O8'
p40
I0
I1
tp41
Rp42
(I3
S'|'
p43
NNNI-1
I-1
I63
tp44
bI00
(lp45
S'B'
p46
aS'regulator-target'
p47
atp48
(Ntp49
tp50
ba(lp51
g10
(cnumpy
ndarray
p52
(I0
tp53
g13
tp54
Rp55
(I1
(I17
I100
I2
tp56
g42
I00
(lp57
F0.0
a(S'G1'
p58
g58
tp59
aF0.322233361728237
a(g58
S'G2'
p60
tp61
aF-0.16124135542583912
a(g58
S'G3'
p62
tp63
aF-0.18637372600058094
a(g58
S'G4'
p64
tp65
aF-0.7376332682738128
a(g58
S'G5'
p66
tp67
aF-0.10401870164613991
a(g58
S'G6'
p68
tp69
aF-0.040540783323402586
a(g58
S'G7'
p70
tp71
aF0.004751714473250013
a(g58
S'G8'
p72
tp73
aF0.06884858753251927
a(g58
S'G9'
p74
tp75
aF-0.7970118170962868
a(g58
S'G10'
p76
tp77
aF0.9924826731669988
a(g60
g58
tp78
aF0.0
a(g60
g60
tp79
aF0.07098038811061115
a(g60
g62
tp80
aF0.14376188435319273
a(g60
g64
tp81
aF0.4025817275355149
a(g60
g66
tp82
aF0.1474410172950766
a(g60
g68
tp83
aF-0.0
a(g60
g70
tp84
aF-0.025378627955765194
a(g60
g72
tp85
aF-0.17620704614121482
a(g60
g74
tp86
aF1.2725454653490058
a(g60
g76
tp87
aF-0.564546645193691
a(g62
g58
tp88
aF0.08079978374481718
a(g62
g60
tp89
aF0.0
a(g62
g62
tp90
aF0.03711082555352092
a(g62
g64
tp91
aF-0.3591253990950381
a(g62
g66
tp92
aF-0.4541601244126915
a(g62
g68
tp93
aF0.3219648561790799
a(g62
g70
tp94
aF-0.10281646097884257
a(g62
g72
tp95
aF-0.08907060416508623
a(g62
g74
tp96
aF-0.8804473196805466
a(g62
g76
tp97
aF-0.2427355926180633
a(g64
g58
tp98
aF0.05819722883771706
a(g64
g60
tp99
aF0.019138375041422736
a(g64
g62
tp100
aF0.0
a(g64
g64
tp101
aF-0.4395544668474804
a(g64
g66
tp102
aF-0.24094591321639014
a(g64
g68
tp103
aF0.2554851457799919
a(g64
g70
tp104
aF-0.0021567255551247153
a(g64
g72
tp105
aF0.048474754841094383
a(g64
g74
tp106
aF-0.057258448516359764
a(g64
g76
tp107
aF-0.6605481569981695
a(g66
g58
tp108
aF0.11509175351534434
a(g66
g60
tp109
aF-0.09113392428848957
a(g66
g62
tp110
aF-0.29574137255404287
a(g66
g64
tp111
aF0.0
a(g66
g66
tp112
aF0.1772981574917365
a(g66
g68
tp113
aF0.22667180781838173
a(g66
g70
tp114
aF0.010806746718879082
a(g66
g72
tp115
aF0.08710873366889858
a(g66
g74
tp116
aF-0.3154913976553443
a(g66
g76
tp117
aF-0.06324970694589203
a(g68
g58
tp118
aF0.0237012726317641
a(g68
g60
tp119
aF-0.08308776499879877
a(g68
g62
tp120
aF-0.12170342971627064
a(g68
g64
tp121
aF0.14776432972353715
a(g68
g66
tp122
aF0.0
a(g68
g68
tp123
aF-0.31400044355155476
a(g68
g70
tp124
aF-0.4812112613258965
a(g68
g72
tp125
aF-0.0072037525277339415
a(g68
g74
tp126
aF-0.2378085079214269
a(g68
g76
tp127
aF-0.07077781878176238
a(g70
g58
tp128
aF-0.0054914321184015525
a(g70
g60
tp129
aF0.14601635727867338
a(g70
g62
tp130
aF0.2838026800143704
a(g70
g64
tp131
aF0.41283385945347856
a(g70
g66
tp132
aF-0.7475812648490207
a(g70
g68
tp133
aF0.0
a(g70
g70
tp134
aF-0.3290116260224327
a(g70
g72
tp135
aF0.17377378519690098
a(g70
g74
tp136
aF-0.33460940196192823
a(g70
g76
tp137
aF-0.0
a(g72
g58
tp138
aF-0.01373520964834907
a(g72
g60
tp139
aF-0.05279708602660068
a(g72
g62
tp140
aF-0.016245808253344176
a(g72
g64
tp141
aF0.03890927047030653
a(g72
g66
tp142
aF-1.2680735597319883
a(g72
g68
tp143
aF-0.3678527654336638
a(g72
g70
tp144
aF0.0
a(g72
g72
tp145
aF-0.034602196317150405
a(g72
g74
tp146
aF-0.3580040308020776
a(g72
g76
tp147
aF0.2866251857621836
a(g74
g58
tp148
aF-0.23378149792380767
a(g74
g60
tp149
aF-0.10641738225550898
a(g74
g62
tp150
aF0.15233722792992271
a(g74
g64
tp151
aF0.3941032406030961
a(g74
g66
tp152
aF-0.02793192662629776
a(g74
g68
tp153
aF0.4662375083490929
a(g74
g70
tp154
aF-0.0759184126530158
a(g74
g72
tp155
aF0.0
a(g74
g74
tp156
aF0.5103588693803892
a(g74
g76
tp157
aF-0.35426343079023803
a(g76
g58
tp158
aF0.18505418930801695
a(g76
g60
tp159
aF-0.11296315311035113
a(g76
g62
tp160
aF-0.01921162050308049
a(g76
g64
tp161
aF-0.15319035705953005
a(g76
g66
tp162
aF-0.1584195722214433
a(g76
g68
tp163
aF-0.09413315312610127
a(g76
g70
tp164
aF-0.08300930136448532
a(g76
g72
tp165
aF0.05343656287422855
a(g76
g74
tp166
aF0.0
a(g76
g76
tp167
aF0.0
ag59
aF-0.033705159951215105
ag61
aF-0.19215755807316892
ag63
aF0.1151363905160225
ag65
aF-0.44725867780016026
ag67
aF0.33881330357997835
ag69
aF-0.4911255960726871
ag71
aF0.1333137359414017
ag73
aF-0.1669289361589934
ag75
aF-0.11882394312512502
ag77
aF-0.5093934321219755
ag78
aF0.0
ag79
aF-0.36350801135616057
ag80
aF0.3173884519924596
ag81
aF0.01804431994105173
ag82
aF0.18923597928043767
ag83
aF-1.0540560970670874
ag84
aF-0.0010856100676422422
ag85
aF-0.46343067810287814
ag86
aF0.3269842708301996
ag87
aF-1.367649825756793
ag88
aF-0.18710650706355897
ag89
aF0.0
ag90
aF0.4097815583711803
ag91
aF-0.6452356731180946
ag92
aF0.23795521770227476
ag93
aF-0.35374973237996465
ag94
aF0.09563494222345621
ag95
aF-0.3875486320148946
ag96
aF-0.15064440622989192
ag97
aF0.6669517095300403
ag98
aF0.12749296772775506
ag99
aF0.32025909438009525
ag100
aF0.0
ag101
aF0.0
ag102
aF-0.6546613404719438
ag103
aF0.6265232708294477
ag104
aF-0.1802490470386263
ag105
aF0.2509169563597997
ag106
aF0.33633939202357577
ag107
aF-1.1353040917445572
ag108
aF0.0041467405374638585
ag109
aF-0.23438391180782
ag110
aF-0.0
ag111
aF0.0
ag112
aF0.5582540583085646
ag113
aF-0.14350550933163211
ag114
aF0.18355355301737594
ag115
aF-0.09631388378073293
ag116
aF-0.12339870663328695
ag117
aF0.6774264655445468
ag118
aF0.022139796213857376
ag119
aF0.06125165435355734
ag120
aF-0.23401668302456075
ag121
aF0.43397930075633995
ag122
aF0.0
ag123
aF0.23870300956578844
ag124
aF-0.41755374263441725
ag125
aF0.11313318813636082
ag126
aF0.20988308806062206
ag127
aF-0.9401887230866542
ag128
aF-0.15120774991739871
ag129
aF-0.09036097089221795
ag130
aF0.21786137350199086
ag131
aF-0.095797672072801
ag132
aF0.22663507557510512
ag133
aF0.0
ag134
aF0.08485268297996829
ag135
aF-0.1713098562508855
ag136
aF-0.10418487964209697
ag137
aF1.0191534535710391
ag138
aF-4.094545236034708e-05
ag139
aF0.10313332290337995
ag140
aF-0.24484856803493454
ag141
aF0.5406378132967768
ag142
aF-1.537947710431739
ag143
aF0.357784723810005
ag144
aF0.0
ag145
aF0.16805000827426775
ag146
aF0.13538674214000118
ag147
aF-1.539342896677554
ag148
aF-0.3075366064270834
ag149
aF-0.4987854878681675
ag150
aF0.42000858500202254
ag151
aF-0.35042564603390386
ag152
aF0.5447149803354162
ag153
aF-0.823874635423796
ag154
aF0.20561167344167314
ag155
aF0.0
ag156
aF0.17503309955767238
ag157
aF-0.6142092868013478
ag158
aF0.127697756009436
ag159
aF-0.10880952665862956
ag160
aF0.3169761568136855
ag161
aF-0.244197880773859
ag162
aF0.5396374971797214
ag163
aF-0.28627521390499355
ag164
aF0.0892010766834356
ag165
aF0.11085116139991125
ag166
aF0.0
ag167
aF0.0
ag59
aF-0.05487389273355732
ag61
aF-0.05696691546672129
ag63
aF-0.0002564768128066283
ag65
aF-0.3030234144235257
ag67
aF0.08785021089265876
ag69
aF-0.692574707823798
ag71
aF-0.008682530076668334
ag73
aF-0.12505128143057392
ag75
aF-0.0638657405680083
ag77
aF-0.5394618263704792
ag78
aF0.0
ag79
aF-0.001989539540256541
ag80
aF-0.2810760300933243
ag81
aF0.5522698706937255
ag82
aF-0.568435349203929
ag83
aF-1.8361416049320323
ag84
aF-0.4462378838337011
ag85
aF-0.2673965789954656
ag86
aF0.06039840288289229
ag87
aF-0.3846394268303355
ag88
aF-0.005392724653216675
ag89
aF0.0
ag90
aF0.4041035806918661
ag91
aF-0.4932000484634426
ag92
aF0.36521525112490677
ag93
aF0.8021538738497926
ag94
aF0.3186909260353225
ag95
aF-0.22752140691829484
ag96
aF0.09863571292532651
ag97
aF-0.0
ag98
aF-0.13615898469618873
ag99
aF0.2672508376001042
ag100
aF0.0
ag101
aF0.0
ag102
aF-0.5502695365331094
ag103
aF-0.2316351529321421
ag104
aF-0.2820705958489249
ag105
aF0.10903530501887698
ag106
aF0.1580622530879371
ag107
aF-0.6284992098287232
ag108
aF0.11395382347611119
ag109
aF-0.14174815330684004
ag110
aF0.0
ag111
aF0.0
ag112
aF0.3211426109545902
ag113
aF0.45232301777269196
ag114
aF0.08594562187389732
ag115
aF0.030376433516743583
ag116
aF0.06688173833146742
ag117
aF0.22944163316961197
ag118
aF-0.1754259248103246
ag119
aF0.1480927944692604
ag120
aF-0.34084538694906164
ag121
aF0.4586605540188048
ag122
aF0.0
ag123
aF-0.47562154310578547
ag124
aF-0.6170972000005556
ag125
aF0.08824873110117393
ag126
aF0.01483558194194177
ag127
aF-0.5881164444940704
ag128
aF-0.1623034606195042
ag129
aF0.09025978895212386
ag130
aF-0.03896037516417204
ag131
aF0.18568045997493154
ag132
aF-0.12112707500984839
ag133
aF0.0
ag134
aF-0.11883707743923058
ag135
aF-0.06731779889305241
ag136
aF-0.11506718378559694
ag137
aF-0.028793928452695506
ag138
aF-0.24289205253749027
ag139
aF0.23375444896171366
ag140
aF-0.314796025791332
ag141
aF0.2448848765905326
ag142
aF-1.0947744007715698
ag143
aF-0.7566110904206991
ag144
aF0.0
ag145
aF0.13038665898660462
ag146
aF-0.12041632769548692
ag147
aF-1.0576550031021636
ag148
aF-0.24811025159630756
ag149
aF-0.2816630744513845
ag150
aF0.1870003380245359
ag151
aF0.11800527040132165
ag152
aF0.26154568842165987
ag153
aF-0.668125900760178
ag154
aF0.20843066415783315
ag155
aF0.0
ag156
aF0.3632591802777261
ag157
aF-0.46118680438448584
ag158
aF0.051376557169896336
ag159
aF0.1038820682635193
ag160
aF0.2338179177727417
ag161
aF0.2510319424531955
ag162
aF0.03690555364902931
ag163
aF-0.986600960877538
ag164
aF-0.18405675251521925
ag165
aF0.31014297289664994
ag166
aF0.0
ag167
aF0.0
ag59
aF-0.007833225235631066
ag61
aF-0.013899679319553505
ag63
aF0.0
ag65
aF-0.6979591723945644
ag67
aF0.025307094365712577
ag69
aF-0.3177156315152722
ag71
aF-0.1166951556189764
ag73
aF-0.0013483372551289722
ag75
aF-0.03282596527138755
ag77
aF-0.1848362259117574
ag78
aF0.0
ag79
aF-0.2595724525275501
ag80
aF-0.21220460168428387
ag81
aF0.7282255143440647
ag82
aF-0.5827463139631553
ag83
aF-1.3710572286196807
ag84
aF-0.43329036961615214
ag85
aF-0.43335672716157597
ag86
aF0.1620382427377612
ag87
aF-0.12381341313511403
ag88
aF-0.17233191190679034
ag89
aF0.0
ag90
aF0.377805381560741
ag91
aF-0.054438364985574854
ag92
aF0.2619784021347754
ag93
aF0.5209613239429595
ag94
aF0.18944888525996517
ag95
aF-0.318209801866454
ag96
aF0.21976178600824423
ag97
aF0.0
ag98
aF-0.06540014083310017
ag99
aF0.19978306466753448
ag100
aF0.0
ag101
aF0.19139892510802642
ag102
aF-0.2799215812181336
ag103
aF-0.2507263957448182
ag104
aF-0.04347348891730332
ag105
aF0.0
ag106
aF0.04960712663286795
ag107
aF-0.7624084044146153
ag108
aF0.04447958345758657
ag109
aF-0.0058780501803386955
ag110
aF0.03545255104448181
ag111
aF0.0
ag112
aF0.11259038303547983
ag113
aF0.17914143195145033
ag114
aF-0.10405106932661798
ag115
aF0.10236522615956871
ag116
aF0.006465945108178782
ag117
aF0.06752211517428247
ag118
aF-0.1831667780259959
ag119
aF0.1303673399308077
ag120
aF-0.2700573501026969
ag121
aF0.5042474761064919
ag122
aF0.0
ag123
aF-0.6957122487659406
ag124
aF-0.7169422809260385
ag125
aF0.05820340662944937
ag126
aF-0.10786051276420247
ag127
aF-0.5437008450950037
ag128
aF-0.14023160634074378
ag129
aF0.08272114363958753
ag130
aF-0.07653763171479161
ag131
aF0.2937017943918274
ag132
aF-0.21717493554205997
ag133
aF0.0
ag134
aF-0.15036108503552817
ag135
aF-0.06920583679744906
ag136
aF-0.11949143269891337
ag137
aF-0.6389384503835829
ag138
aF-0.16058851174817143
ag139
aF0.10490857260807979
ag140
aF-0.049890347775611174
ag141
aF-0.48654963052196193
ag142
aF-0.8358607890641321
ag143
aF-0.5442361474200581
ag144
aF0.0
ag145
aF0.2045866040534827
ag146
aF-0.21775139432595883
ag147
aF-0.002984205254490097
ag148
aF-0.2618072943436946
ag149
aF-0.29887572075940194
ag150
aF-0.001970288583927151
ag151
aF0.9221912986205438
ag152
aF0.11414661070284528
ag153
aF-0.38654523927430073
ag154
aF0.3437988605923837
ag155
aF0.0
ag156
aF0.5013698303407348
ag157
aF-0.3992976968879677
ag158
aF0.1257408631952023
ag159
aF0.2607140636123057
ag160
aF0.10215832170449546
ag161
aF0.08906285318617424
ag162
aF-0.25920271544296486
ag163
aF-0.8495686320345401
ag164
aF-0.4478167270064828
ag165
aF0.623371653351585
ag166
aF0.0
ag167
aF0.0
ag59
aF0.023304081397685045
ag61
aF0.039513933963403025
ag63
aF0.12085936475107936
ag65
aF-0.5940938546090757
ag67
aF-0.04449079702042172
ag69
aF-0.42818345162401983
ag71
aF-0.19424220329388467
ag73
aF0.08009274604685718
ag75
aF-0.15008034774105913
ag77
aF0.4461199122249893
ag78
aF0.0
ag79
aF-0.3979979468845339
ag80
aF0.10273995484210598
ag81
aF0.7022713036882267
ag82
aF-0.566532672090016
ag83
aF-0.6919828730240329
ag84
aF-0.435493174235548
ag85
aF-0.5684872340585634
ag86
aF0.4083983952656277
ag87
aF0.5266488087375126
ag88
aF-0.2693230656304562
ag89
aF0.0
ag90
aF0.20139851761042749
ag91
aF0.6321168060250659
ag92
aF-0.24023662906137797
ag93
aF0.36938326055833937
ag94
aF-0.0763936437085825
ag95
aF-0.3111218912728358
ag96
aF0.2613357318332111
ag97
aF0.6109060957725054
ag98
aF0.023907238533051673
ag99
aF0.07979327774470416
ag100
aF0.0
ag101
aF0.6442187935824658
ag102
aF0.021747097326869743
ag103
aF0.12057680939489877
ag104
aF0.2603553152021359
ag105
aF-0.2727794717328603
ag106
aF0.21327418149772784
ag107
aF-0.8893846577481466
ag108
aF0.049198117369759944
ag109
aF0.07078354216795
ag110
aF0.184564805273019
ag111
aF0.0
ag112
aF0.015346797273147243
ag113
aF0.02766307051025931
ag114
aF-0.19901779861944768
ag115
aF0.17198357542437046
ag116
aF-0.07364939996731058
ag117
aF-0.43810749652030817
ag118
aF-0.2453116587821795
ag119
aF-0.15281490175365603
ag120
aF0.05673325897491308
ag121
aF0.10864725985758716
ag122
aF0.0
ag123
aF-0.7307219518308401
ag124
aF-1.0475165349286348
ag125
aF0.07759274628724483
ag126
aF-0.23219942511025404
ag127
aF-0.8275479899756825
ag128
aF-0.06568239040650445
ag129
aF0.057461118035214635
ag130
aF0.053256317756831074
ag131
aF0.043030224854493926
ag132
aF-0.161902652841967
ag133
aF0.0
ag134
aF-0.22500021033666293
ag135
aF0.028641604978931985
ag136
aF-0.24992927598204576
ag137
aF-1.043408177480947
ag138
aF-0.11410849772131881
ag139
aF-0.027021945895235683
ag140
aF0.27580160284333555
ag141
aF-0.659635902504151
ag142
aF-0.6465632726709192
ag143
aF-0.6311859978226109
ag144
aF0.0
ag145
aF0.283336063419318
ag146
aF-0.37214007383778547
ag147
aF0.7545184648235075
ag148
aF-0.25401250464029035
ag149
aF-0.20173967482122832
ag150
aF-0.45263373321683087
ag151
aF1.0251670949139684
ag152
aF0.0714367138906558
ag153
aF0.12215183264189082
ag154
aF0.4591666250117983
ag155
aF0.0
ag156
aF0.68359201546454
ag157
aF-1.4247641452431101
ag158
aF0.18554861405343442
ag159
aF0.1794986389382915
ag160
aF0.38756623455976247
ag161
aF-0.4584072103159946
ag162
aF-0.25749653603047473
ag163
aF-1.2122097683207183
ag164
aF-0.6463092576507806
ag165
aF0.7182422958076758
ag166
aF0.0
ag167
aF0.0
ag59
aF0.03395615925662355
ag61
aF-0.05589290362163224
ag63
aF0.10413894379807159
ag65
aF-0.2580031215280069
ag67
aF-0.09846171961253243
ag69
aF-0.610091791171454
ag71
aF-0.14782666150365475
ag73
aF-0.0
ag75
aF-0.15971838158363488
ag77
aF0.4045075477830679
ag78
aF0.0
ag79
aF-0.14432315092622802
ag80
aF0.8998615204472782
ag81
aF-0.16852007013355583
ag82
aF-0.25744884619577646
ag83
aF-0.0
ag84
aF-0.15460505358231408
ag85
aF-0.7208126298027954
ag86
aF0.73210733536066
ag87
aF-0.7383237548228202
ag88
aF-0.14122019471164515
ag89
aF0.0
ag90
aF0.1294922263851649
ag91
aF0.4713270905181286
ag92
aF-0.47969345579101375
ag93
aF-0.6547343709236878
ag94
aF-0.44678269965079875
ag95
aF0.046769452608673795
ag96
aF-0.2348631473352592
ag97
aF0.32654903716370126
ag98
aF0.2320914572316619
ag99
aF0.02647086603759422
ag100
aF0.0
ag101
aF0.5301061044704207
ag102
aF0.036998046952763465
ag103
aF0.027280078859347245
ag104
aF0.12827169797891128
ag105
aF0.07108338503727955
ag106
aF-0.09439366908582393
ag107
aF-0.679921170002392
ag108
aF-0.021554679938200025
ag109
aF0.0872911752916633
ag110
aF0.3663940146565392
ag111
aF0.0
ag112
aF0.0470110028372282
ag113
aF0.24141695905645258
ag114
aF-0.09940127782986086
ag115
aF-0.0
ag116
aF0.09401807514626115
ag117
aF-1.0665632150338944
ag118
aF-0.1927240401925829
ag119
aF-0.37123549238529285
ag120
aF0.16393452310749382
ag121
aF0.19590901784389828
ag122
aF0.0
ag123
aF-1.2162183102277675
ag124
aF-0.9995182049816427
ag125
aF0.1804666678371649
ag126
aF-0.39323266594139183
ag127
aF-0.9079218541436052
ag128
aF-0.0
ag129
aF-0.07094177267773903
ag130
aF0.031884526750976326
ag131
aF0.1546501140254545
ag132
aF-0.17314599158369387
ag133
aF0.0
ag134
aF-0.18342212786620607
ag135
aF0.0432733648809525
ag136
aF-0.2714708258583242
ag137
aF-1.1121726232420264
ag138
aF-0.08366385960079874
ag139
aF-0.25617275038345455
ag140
aF0.2829827584707556
ag141
aF-0.22511522365765235
ag142
aF-0.7261345534903149
ag143
aF-0.9557775273727549
ag144
aF0.0
ag145
aF0.3909576432886225
ag146
aF-0.5226216042151806
ag147
aF-0.0
ag148
aF-0.3314346441410008
ag149
aF0.016961113768690438
ag150
aF0.12095187195219217
ag151
aF-0.0
ag152
aF0.10230293085167051
ag153
aF0.1939591864597886
ag154
aF0.33613691591708134
ag155
aF0.0
ag156
aF0.7468935876963817
ag157
aF-1.0664898778280982
ag158
aF0.3452890266535218
ag159
aF-0.12442729121098674
ag160
aF-0.12792622088304123
ag161
aF0.2757139807824159
ag162
aF-0.261142036836287
ag163
aF-1.2425823901638156
ag164
aF-0.4785077125439659
ag165
aF0.7878577236195328
ag166
aF0.0
ag167
aF0.0
ag59
aF0.05666665343596609
ag61
aF-0.08406864554712724
ag63
aF0.14534905771644363
ag65
aF-0.24668228844795906
ag67
aF-0.05220356775146838
ag69
aF-0.5608783665769808
ag71
aF-0.07484997069744856
ag73
aF-0.019992912752052498
ag75
aF-0.14127748143739063
ag77
aF0.5022343696983954
ag78
aF0.0
ag79
aF-0.18040976635437453
ag80
aF0.1325268210507832
ag81
aF-0.03586616193956011
ag82
aF-0.19078443507155948
ag83
aF0.18811805286778402
ag84
aF-0.021096599387740587
ag85
aF-0.9555504861303888
ag86
aF0.9262953337341618
ag87
aF-0.7553009503171748
ag88
aF-0.14849911911042765
ag89
aF0.0
ag90
aF0.23665549323605703
ag91
aF0.17319063243211913
ag92
aF-0.3065638860071058
ag93
aF-0.27664094758492636
ag94
aF-0.30007040342057895
ag95
aF-0.07664777557551906
ag96
aF0.0
ag97
aF0.8048443139485285
ag98
aF0.0833189618723163
ag99
aF0.14590903248449108
ag100
aF0.0
ag101
aF0.5379893426277714
ag102
aF0.042065450892735085
ag103
aF0.3090340833326902
ag104
aF0.1563428153307877
ag105
aF0.0
ag106
aF0.01717384270044277
ag107
aF-0.9331358634862259
ag108
aF-0.0
ag109
aF0.06682079575569946
ag110
aF0.34470211713480015
ag111
aF0.0
ag112
aF0.04763656279360927
ag113
aF0.08457709963208386
ag114
aF-0.05942915782939352
ag115
aF-0.054724701770183314
ag116
aF0.1008419514711752
ag117
aF-0.6600347953674193
ag118
aF-0.22298758626715165
ag119
aF-0.38143162498504657
ag120
aF0.11234583952681754
ag121
aF0.16058275064242597
ag122
aF0.0
ag123
aF-0.8775665627713861
ag124
aF-1.0326702286308869
ag125
aF0.20838318133850767
ag126
aF-0.27173586683860623
ag127
aF-1.0040076310594128
ag128
aF0.026404072080451597
ag129
aF-0.052178031093990405
ag130
aF0.11120208799582634
ag131
aF0.053449288255101104
ag132
aF-0.13960824950470235
ag133
aF0.0
ag134
aF-0.15048210630120218
ag135
aF0.06354988906568834
ag136
aF-0.28873111728338935
ag137
aF-0.6161277767468833
ag138
aF-0.025200323999062416
ag139
aF-0.25746820352416383
ag140
aF0.2194196999952177
ag141
aF-0.060593818335969114
ag142
aF-0.7313002491435487
ag143
aF-0.6895211562267428
ag144
aF0.0
ag145
aF0.48666599793513465
ag146
aF-0.47267681120578814
ag147
aF-0.0013353925991031125
ag148
aF-0.45389739970091425
ag149
aF-0.047324549997948336
ag150
aF-0.008948067385324068
ag151
aF-0.07980344518249056
ag152
aF0.08735471553129563
ag153
aF0.25334816987148395
ag154
aF0.2896022349587927
ag155
aF0.0
ag156
aF0.7696317026341465
ag157
aF-0.77992760471418
ag158
aF0.5254435905130349
ag159
aF0.006039097827225278
ag160
aF0.02670473057991157
ag161
aF0.2111238490679149
ag162
aF-0.14057950621710313
ag163
aF-0.9483663558072404
ag164
aF-0.3374545130763776
ag165
aF0.9150538012249846
ag166
aF0.0
ag167
aF0.0
ag59
aF0.3518800412749785
ag61
aF-0.034057691603091036
ag63
aF0.183224310931302
ag65
aF-0.5383261583005641
ag67
aF0.10857448563636571
ag69
aF-0.06999262864813267
ag71
aF0.08589643598032619
ag73
aF0.21620942276874547
ag75
aF-0.2577968023730271
ag77
aF0.9634564025289679
ag78
aF0.0
ag79
aF-0.41448559311566296
ag80
aF0.017763441665899916
ag81
aF0.34561297580825034
ag82
aF-0.11414016889617817
ag83
aF0.3046636030776951
ag84
aF0.05297207609299144
ag85
aF-0.9331194806956861
ag86
aF0.9512452610915766
ag87
aF-0.06795260892995145
ag88
aF-0.3753996332762771
ag89
aF0.0
ag90
aF0.16274392428320775
ag91
aF0.40227859017584433
ag92
aF-0.11635696447605609
ag93
aF0.12481144289371471
ag94
aF0.026740555527398072
ag95
aF-0.5730041661121126
ag96
aF0.511578140449597
ag97
aF0.3719624502118728
ag98
aF0.03130705127811232
ag99
aF0.14612032568219502
ag100
aF0.0
ag101
aF0.4443907550824802
ag102
aF0.037170425369956905
ag103
aF0.0
ag104
aF0.17214163592826356
ag105
aF-0.07445879848872844
ag106
aF0.004469117026884978
ag107
aF-0.7716250203614845
ag108
aF0.17124563899052533
ag109
aF0.2261449456158265
ag110
aF0.31789516257602424
ag111
aF0.0
ag112
aF0.1537509865800222
ag113
aF0.1894681789090127
ag114
aF0.05540806724846018
ag115
aF0.16533834502834927
ag116
aF-0.05607110525127277
ag117
aF0.4651401345671378
ag118
aF-0.18077001443881036
ag119
aF-0.1943766012075653
ag120
aF0.08958310414120907
ag121
aF0.45226953427016037
ag122
aF0.0
ag123
aF-0.2528905909622344
ag124
aF-0.9578369587052922
ag125
aF0.2189009732741317
ag126
aF-0.032256458868140166
ag127
aF-0.21966301121087406
ag128
aF0.3185921249981601
ag129
aF0.156275434112986
ag130
aF0.017576427341567075
ag131
aF0.3598658663530903
ag132
aF-0.1765046289779412
ag133
aF0.0
ag134
aF-0.31075121926201255
ag135
aF0.9846079700901551
ag136
aF-0.8607511431510491
ag137
aF0.21932954508319222
ag138
aF0.04596399168948886
ag139
aF0.02735041217099476
ag140
aF0.2526916270135513
ag141
aF0.09508020433056863
ag142
aF-0.6216019888529302
ag143
aF-0.28908791901744174
ag144
aF0.0
ag145
aF0.6563383732978103
ag146
aF-0.4379599642366697
ag147
aF0.26605076958507734
ag148
aF-0.4255325278964545
ag149
aF-0.2988327425189753
ag150
aF-0.04897002352500829
ag151
aF0.1380663963860296
ag152
aF0.0663886022564998
ag153
aF0.4293573327277128
ag154
aF0.3022376019628091
ag155
aF0.0
ag156
aF0.7803213735891237
ag157
aF-0.43692514530548293
ag158
aF0.5909500957016465
ag159
aF0.36039278881308556
ag160
aF0.008650371271754902
ag161
aF-0.06998926312511472
ag162
aF-0.013503668160881627
ag163
aF-0.508326803920273
ag164
aF-0.2730197095889033
ag165
aF1.054976387980466
ag166
aF0.0
ag167
aF0.0
ag59
aF0.32776050321763395
ag61
aF-0.20876933005342835
ag63
aF0.0893056225677295
ag65
aF-0.4288613453391219
ag67
aF0.0643474304014867
ag69
aF0.14331969561766414
ag71
aF0.14150433960097156
ag73
aF-0.07300767286039507
ag75
aF-0.07501473273624112
ag77
aF1.1382770386313725
ag78
aF0.0
ag79
aF0.0
ag80
aF0.22070675905054976
ag81
aF0.3387044229611547
ag82
aF-0.14122581180754687
ag83
aF-0.2844121189690821
ag84
aF-0.15710355546639157
ag85
aF-0.27543949479630825
ag86
aF0.47400963304643107
ag87
aF-0.6841211234190002
ag88
aF-0.0
ag89
aF0.0
ag90
aF0.5449753596222705
ag91
aF0.16059747829676366
ag92
aF-0.16362733862833204
ag93
aF0.02981823965586741
ag94
aF0.05668396498305806
ag95
aF-0.35461797475267964
ag96
aF0.21415550802713873
ag97
aF0.24641852907865516
ag98
aF0.1828595719285363
ag99
aF0.4745453713405725
ag100
aF0.0
ag101
aF0.052868966866392746
ag102
aF0.20981006928843646
ag103
aF0.18983111403167352
ag104
aF0.27024521628575054
ag105
aF0.023943305451047926
ag106
aF-0.031062560787208555
ag107
aF-1.0394885010688413
ag108
aF0.23151761273178423
ag109
aF0.11675065322929686
ag110
aF0.05278176970700361
ag111
aF0.0
ag112
aF0.0593627008286318
ag113
aF0.24012870432594183
ag114
aF-0.037062316129606566
ag115
aF0.06806424578878092
ag116
aF-0.045386114884540585
ag117
aF0.3450302552165026
ag118
aF-0.2138057402306933
ag119
aF-0.2665305233071603
ag120
aF0.394441431661312
ag121
aF0.1149468577174804
ag122
aF0.0
ag123
aF0.010558156555944562
ag124
aF-0.8691468345713276
ag125
aF0.13721008420176778
ag126
aF0.181682002614661
ag127
aF0.6729611186521107
ag128
aF-0.38258396360233965
ag129
aF0.04408516767918703
ag130
aF0.3047139123181629
ag131
aF0.4551336868955209
ag132
aF0.007030135910369843
ag133
aF0.0
ag134
aF-0.026335665658546982
ag135
aF0.6470105817392618
ag136
aF-0.29950033333865383
ag137
aF0.5023493592996419
ag138
aF-0.1571099693472532
ag139
aF0.05795890820713133
ag140
aF0.3276535626177095
ag141
aF-0.06443060607308353
ag142
aF-0.5732345414770548
ag143
aF-0.015100781729327424
ag144
aF0.0
ag145
aF0.49577148054537823
ag146
aF-0.15223137220045604
ag147
aF-0.16543433744585379
ag148
aF-0.1759480928300971
ag149
aF-0.24082981960033267
ag150
aF0.02024571905825585
ag151
aF0.0789882572128637
ag152
aF0.052182057094595315
ag153
aF0.3055331960568499
ag154
aF0.3143502365555032
ag155
aF0.0
ag156
aF0.6011598560769955
ag157
aF-0.25804277864328967
ag158
aF0.5181054178687647
ag159
aF0.26284224115170135
ag160
aF-0.05082882539293772
ag161
aF-0.08104335449520376
ag162
aF0.13093408591812905
ag163
aF-0.25252760764098087
ag164
aF-0.17889693375329974
ag165
aF1.0546701185968665
ag166
aF0.0
ag167
aF0.0
ag59
aF0.2452676912305867
ag61
aF-0.1169666844621611
ag63
aF0.11660125644727087
ag65
aF-0.5083495519626348
ag67
aF-0.06006165243921952
ag69
aF0.2265223047368319
ag71
aF0.08739361310313291
ag73
aF-0.22953280137222115
ag75
aF0.06936234421203294
ag77
aF0.45617382835109044
ag78
aF0.0
ag79
aF-0.5647207697096556
ag80
aF0.5138935587765472
ag81
aF0.21396652404213812
ag82
aF0.08595047501948894
ag83
aF-0.40103773219812106
ag84
aF-0.05575884747260193
ag85
aF-0.27909439290257787
ag86
aF0.38192817152108627
ag87
aF-0.13603526004190955
ag88
aF-0.30490275942645945
ag89
aF0.0
ag90
aF0.8724411300059266
ag91
aF0.2841042653762928
ag92
aF-0.02922936524802687
ag93
aF-0.06535802816125663
ag94
aF-0.17506295597898794
ag95
aF-0.4335054209933211
ag96
aF0.3404696233613535
ag97
aF0.09556796132788305
ag98
aF0.20133730029155614
ag99
aF0.636997017676909
ag100
aF0.0
ag101
aF-0.10854962824917312
ag102
aF-0.0
ag103
aF0.2233569722511724
ag104
aF0.286412681656343
ag105
aF0.118080812200589
ag106
aF-0.067379074159108
ag107
aF-0.7406260948326873
ag108
aF0.1599145405002642
ag109
aF0.39178430693363314
ag110
aF-0.20411213084626456
ag111
aF0.0
ag112
aF-0.05583767412408358
ag113
aF0.09619186202646317
ag114
aF-0.07236116705088046
ag115
aF0.34250695565226724
ag116
aF-0.14282863493933975
ag117
aF-0.11103312707557261
ag118
aF0.08591207227405777
ag119
aF-0.07019185828748224
ag120
aF-0.0
ag121
aF-0.07560781080911348
ag122
aF0.0
ag123
aF0.05654547481736751
ag124
aF-0.5846835395662154
ag125
aF0.09346632795551246
ag126
aF0.21572183807434703
ag127
aF0.4118140053677916
ag128
aF-0.37530116642205624
ag129
aF-0.1054426246735592
ag130
aF0.5145005312851199
ag131
aF0.11523721121960936
ag132
aF0.0539041935243612
ag133
aF0.0
ag134
aF-0.05004657420369852
ag135
aF0.6817663079553277
ag136
aF-0.23071884748954608
ag137
aF0.13100871592636834
ag138
aF-0.040711007788833464
ag139
aF-0.27788461611719145
ag140
aF0.5901759137204796
ag141
aF-0.08609354462136808
ag142
aF-0.4630199047394819
ag143
aF-0.03690198572934944
ag144
aF0.0
ag145
aF0.38338596220213406
ag146
aF-0.10906019021017939
ag147
aF-0.20424066340468844
ag148
aF-0.11762444214834696
ag149
aF-0.3374689437755916
ag150
aF0.13311374093666814
ag151
aF0.19633760362073394
ag152
aF0.031313349145386214
ag153
aF0.31187073396140913
ag154
aF0.20206484175507017
ag155
aF0.0
ag156
aF0.5162169355976759
ag157
aF0.14664495709818454
ag158
aF0.36535813244579374
ag159
aF0.6037288634556607
ag160
aF-0.1828186192489679
ag161
aF-0.18773309645366587
ag162
aF0.19042732781118987
ag163
aF-0.23088625637840388
ag164
aF-0.13080411887522622
ag165
aF1.1387489834528468
ag166
aF0.0
ag167
aF0.0
ag59
aF0.11333384539368442
ag61
aF-0.1545538810701765
ag63
aF0.08712604115999788
ag65
aF-0.4691814883243691
ag67
aF-0.0682999853113353
ag69
aF0.17606757705610232
ag71
aF0.11672650914648543
ag73
aF-0.24253073425973729
ag75
aF0.10279902260978323
ag77
aF0.27489068025242963
ag78
aF0.0
ag79
aF-0.322555357455568
ag80
aF0.1576117608398758
ag81
aF0.03343655289230262
ag82
aF0.1643662112352488
ag83
aF-0.36752143464021303
ag84
aF0.0748029147963362
ag85
aF-0.18648345688275597
ag86
aF0.22888764203724132
ag87
aF-0.20292764156512053
ag88
aF-0.16201433878866045
ag89
aF0.0
ag90
aF0.7701040727258818
ag91
aF0.3199573865599988
ag92
aF-0.09236692775963937
ag93
aF-0.05149678069357487
ag94
aF-0.2381570607599148
ag95
aF-0.5020458951019399
ag96
aF0.4309023733489319
ag97
aF0.10465913733979897
ag98
aF0.07120911620543699
ag99
aF0.7019425088661864
ag100
aF0.0
ag101
aF-0.25493958749103246
ag102
aF-0.053991968824901496
ag103
aF0.1503933986851245
ag104
aF0.3122405137323592
ag105
aF0.2795407948758216
ag106
aF-0.10977916834635501
ag107
aF-0.7059407321141058
ag108
aF0.023830826912443454
ag109
aF0.3926712018713645
ag110
aF-0.3423340064696194
ag111
aF0.0
ag112
aF0.06623593899674873
ag113
aF0.0003388861435789753
ag114
aF0.11491284878534326
ag115
aF0.43733969788831123
ag116
aF-0.1977158025018963
ag117
aF-0.15628340598645737
ag118
aF0.15564785687973878
ag119
aF-0.18027002586145188
ag120
aF-0.11823308909143021
ag121
aF0.10474062458088239
ag122
aF0.0
ag123
aF0.10840108077504551
ag124
aF-0.6234004798493904
ag125
aF-0.042868783531901974
ag126
aF0.3179928574030956
ag127
aF0.30680159852048833
ag128
aF-0.25133245311095165
ag129
aF-0.0695602263914853
ag130
aF0.22272114414970554
ag131
aF0.0
ag132
aF0.08246200553828045
ag133
aF0.0
ag134
aF0.1302327786531629
ag135
aF0.6630507085780809
ag136
aF-0.15898324825916016
ag137
aF0.14736286539112384
ag138
aF0.041406974891705785
ag139
aF-0.266894428169132
ag140
aF0.3752531001973715
ag141
aF0.09848094539342996
ag142
aF-0.3614653973682762
ag143
aF0.10493184275903499
ag144
aF0.0
ag145
aF0.17720029819891459
ag146
aF0.013627224273652554
ag147
aF-0.2025328152661593
ag148
aF-0.06316081811076765
ag149
aF-0.3189242894292641
ag150
aF0.2005411806482268
ag151
aF0.2260854163109367
ag152
aF-0.0209884036096415
ag153
aF0.30483521263807073
ag154
aF0.10007521289550614
ag155
aF0.0
ag156
aF0.4431487841074266
ag157
aF0.21997794973470672
ag158
aF0.18543706531417653
ag159
aF0.6828956711045179
ag160
aF-0.19536437413135604
ag161
aF-0.25716816148900307
ag162
aF0.2673544161303816
ag163
aF-0.17596817673240844
ag164
aF0.012074700834214606
ag165
aF1.087460462377565
ag166
aF0.0
ag167
aF0.0
ag59
aF-0.37328287458777476
ag61
aF-0.02778042275323733
ag63
aF-0.03023314347352386
ag65
aF-0.390139153574999
ag67
aF0.05108022933045617
ag69
aF0.03906633716582897
ag71
aF-0.31821485367103775
ag73
aF-0.12300895530045296
ag75
aF-0.03409900967503603
ag77
aF-0.6698968691548319
ag78
aF0.0
ag79
aF0.019321494478084802
ag80
aF-0.13274721357845545
ag81
aF-0.39606623286524395
ag82
aF0.35654486879674335
ag83
aF-0.2518667441187079
ag84
aF-0.35288135244690794
ag85
aF-0.07216510797477826
ag86
aF-0.13279106033389657
ag87
aF-0.10401584846001177
ag88
aF0.06039723272768112
ag89
aF0.0
ag90
aF0.7652139995132307
ag91
aF0.41502538009142365
ag92
aF-0.3306872724327656
ag93
aF0.20140263235280192
ag94
aF-0.5136520711924056
ag95
aF-0.46544509132293943
ag96
aF0.457838107261212
ag97
aF-0.0388722392278533
ag98
aF-0.18003659760646634
ag99
aF0.4772438920151876
ag100
aF0.0
ag101
aF-0.3406274077054089
ag102
aF-0.028178781848710255
ag103
aF-0.035582007934205954
ag104
aF-0.06825348153486142
ag105
aF0.5884506601851737
ag106
aF0.05559263028621771
ag107
aF-0.80029949557558
ag108
aF-0.4638894374233199
ag109
aF0.19707875929558755
ag110
aF-0.27646781078223626
ag111
aF0.0
ag112
aF0.3600976195263134
ag113
aF-0.4255798921717328
ag114
aF-0.27280688382775925
ag115
aF0.28885496954915235
ag116
aF-0.20662014104004447
ag117
aF0.15131434772790633
ag118
aF0.6124443170046519
ag119
aF-0.24900652327614967
ag120
aF-0.02200703666167215
ag121
aF0.5338173658828343
ag122
aF0.0
ag123
aF0.5985798990364974
ag124
aF-0.3175623318122201
ag125
aF0.0015412543519004707
ag126
aF0.4739607418100084
ag127
aF0.055984732432874766
ag128
aF-0.2308507356566868
ag129
aF0.06450174181640929
ag130
aF-0.006031396253978205
ag131
aF-0.32544408067811315
ag132
aF0.30264039043799007
ag133
aF0.0
ag134
aF0.24994983809182109
ag135
aF0.15846897577439653
ag136
aF-0.20357326737705783
ag137
aF-0.2675632069763567
ag138
aF-0.16783617316598465
ag139
aF-0.10832614771945963
ag140
aF-0.031917469145321564
ag141
aF-0.11630041973556832
ag142
aF-0.09152948251361734
ag143
aF0.14182572695945092
ag144
aF0.0
ag145
aF-0.0
ag146
aF0.09179349319575053
ag147
aF-0.12875185748042545
ag148
aF-0.032538082779321284
ag149
aF-0.12022858027716644
ag150
aF0.25566134414882724
ag151
aF0.17605263951028235
ag152
aF0.01014183514876902
ag153
aF0.12590322850835128
ag154
aF-0.0
ag155
aF0.0
ag156
aF0.1443571407101454
ag157
aF-0.1049144518120396
ag158
aF-0.28882503482349586
ag159
aF0.4314535157029487
ag160
aF0.0878128478298451
ag161
aF-0.39059836080906213
ag162
aF0.6069174403360723
ag163
aF-0.524719714137065
ag164
aF0.44792082981556197
ag165
aF0.49963893091428957
ag166
aF0.0
ag167
aF0.0
ag59
aF-0.24050457016445345
ag61
aF-0.02666263254005856
ag63
aF-0.04307080285192432
ag65
aF-0.3442996172519657
ag67
aF-0.04147714626666621
ag69
aF0.0
ag71
aF-0.0
ag73
aF-0.0
ag75
aF-0.07619067064986218
ag77
aF-0.34622765402638767
ag78
aF0.0
ag79
aF0.06389793014165512
ag80
aF0.20556549512248998
ag81
aF-0.08462892294231762
ag82
aF0.4441962364550582
ag83
aF-0.5085040542794848
ag84
aF0.6622203489919007
ag85
aF0.12737375163923925
ag86
aF-0.10899361014851007
ag87
aF-0.09366161457726441
ag88
aF0.1570456756314385
ag89
aF0.0
ag90
aF0.5148917758858732
ag91
aF0.5165763807421305
ag92
aF-0.4506414729976898
ag93
aF0.41030958450124344
ag94
aF-0.6667265468815048
ag95
aF-0.4614108622288318
ag96
aF0.3243914587099416
ag97
aF-0.08727489116466665
ag98
aF0.2512925367593739
ag99
aF0.29051531584452334
ag100
aF0.0
ag101
aF-0.21375181232102972
ag102
aF-0.31470765927305705
ag103
aF0.23861318180298197
ag104
aF-0.5842299145691564
ag105
aF0.47284663447127934
ag106
aF-0.0
ag107
aF-0.3553063473820393
ag108
aF-0.0433603981567784
ag109
aF0.1427809974829821
ag110
aF-0.12930476999611826
ag111
aF0.0
ag112
aF0.04795336038745371
ag113
aF-0.1501917916945777
ag114
aF0.15784042709802928
ag115
aF-0.05713629604267997
ag116
aF-0.1605717304274405
ag117
aF-0.09012285197204352
ag118
aF0.5197974249010099
ag119
aF-0.22663461395348877
ag120
aF-0.2946911944318981
ag121
aF0.1175573903410926
ag122
aF0.0
ag123
aF0.6118833313481977
ag124
aF-0.7325960062400808
ag125
aF-0.09639219058407637
ag126
aF0.23656404863400116
ag127
aF0.0036588571673238893
ag128
aF-0.41725125165117477
ag129
aF0.14386970837812693
ag130
aF0.15608448014909018
ag131
aF-0.21154998355703072
ag132
aF0.4246948883558035
ag133
aF0.0
ag134
aF0.7700456339293462
ag135
aF0.227655530974424
ag136
aF-0.2827892307090925
ag137
aF-0.0006279473549909286
ag138
aF0.27356857420990016
ag139
aF-0.11949324827057259
ag140
aF-0.18594164801624793
ag141
aF0.11408034659600363
ag142
aF-0.25157507752309344
ag143
aF0.38873833350424375
ag144
aF0.0
ag145
aF0.07994479295650288
ag146
aF0.04692298632056517
ag147
aF0.0
ag148
aF0.07276318453472427
ag149
aF-0.11705897593651889
ag150
aF0.21452589928006485
ag151
aF-0.046642734062789605
ag152
aF-0.04584571285460066
ag153
aF0.16478541373795247
ag154
aF0.1273742602068454
ag155
aF0.0
ag156
aF0.2182180814879557
ag157
aF-0.11173109837895187
ag158
aF-0.11288565965193506
ag159
aF0.14745896957349236
ag160
aF-0.0
ag161
aF-0.2560589828478509
ag162
aF0.21799773622632512
ag163
aF-0.3732106795723618
ag164
aF0.1122186179853738
ag165
aF0.4167282937154699
ag166
aF0.0
ag167
aF0.0
ag59
aF-0.3138064117834458
ag61
aF-0.12518190679082075
ag63
aF-0.3117676071473687
ag65
aF-0.510588188350599
ag67
aF0.06360397578696751
ag69
aF-0.04130224596253265
ag71
aF0.39670613578067415
ag73
aF0.1980855579123496
ag75
aF-0.5173568668725693
ag77
aF-0.5738120806111688
ag78
aF0.0
ag79
aF-0.3276179266233699
ag80
aF-0.2652234326295513
ag81
aF-0.3333072956880396
ag82
aF0.22412955886198466
ag83
aF-0.17742274036595165
ag84
aF0.7828013267731472
ag85
aF0.5054692745609427
ag86
aF-0.5749083866164966
ag87
aF-0.3254222083490091
ag88
aF-0.5196481201627225
ag89
aF0.0
ag90
aF-0.2609641560190344
ag91
aF-0.04828985757550559
ag92
aF-0.26351584306860715
ag93
aF0.2620478579107373
ag94
aF0.06860825154175834
ag95
aF-0.22782556836765167
ag96
aF-0.23209452077232057
ag97
aF-0.6702046129368237
ag98
aF-0.31266607785782813
ag99
aF-0.20416824906756326
ag100
aF0.0
ag101
aF-0.48461967717802407
ag102
aF0.09225715568810924
ag103
aF-0.0005812687224580923
ag104
aF0.009509901990400022
ag105
aF0.479039704235636
ag106
aF-0.6659914699535722
ag107
aF-0.34489998105656416
ag108
aF-0.10614596722053775
ag109
aF-0.014220493544439529
ag110
aF-0.1490660011895365
ag111
aF0.0
ag112
aF0.0
ag113
aF-0.06173522032228561
ag114
aF0.264627149725803
ag115
aF0.0
ag116
aF-0.171051574452512
ag117
aF0.10900040570391502
ag118
aF0.22493251444420076
ag119
aF-0.17270265307046906
ag120
aF0.07362617497160892
ag121
aF0.011668056435347615
ag122
aF0.0
ag123
aF0.18792267813114588
ag124
aF-0.6604400015022052
ag125
aF-0.26580551410371245
ag126
aF0.45411109923636406
ag127
aF-0.0854303837799513
ag128
aF-0.19026151971851044
ag129
aF0.17773075347501577
ag130
aF-0.0
ag131
aF-0.20412349918048853
ag132
aF0.20309067794878694
ag133
aF0.0
ag134
aF0.9197773287349741
ag135
aF0.5293612042952422
ag136
aF-0.456609528501978
ag137
aF0.20444143620662744
ag138
aF0.22223284765553472
ag139
aF0.013750969666549278
ag140
aF-0.0
ag141
aF0.21491415808596726
ag142
aF-0.1911018556058873
ag143
aF0.24880414706426499
ag144
aF0.0
ag145
aF-0.11498055836115459
ag146
aF0.34420866720943105
ag147
aF0.12691064567438623
ag148
aF0.19788388311671856
ag149
aF-0.06256609052263246
ag150
aF0.15900089542605467
ag151
aF0.001584890289062663
ag152
aF-0.09797750103573118
ag153
aF0.19075846068953153
ag154
aF-0.13763879714745206
ag155
aF0.0
ag156
aF0.351850426870356
ag157
aF-0.47109008464594426
ag158
aF-0.2840239067175005
ag159
aF-0.07633987825384601
ag160
aF-0.2802550434428523
ag161
aF-0.26178854208235874
ag162
aF0.2277558819110387
ag163
aF-0.21282498034642494
ag164
aF0.6022459545601933
ag165
aF0.45658970462499193
ag166
aF0.0
ag167
aF0.0
ag59
aF-0.11878765924768556
ag61
aF0.036761185325536815
ag63
aF-0.23789058507686592
ag65
aF-1.1044072346007427
ag67
aF0.238163115531902
ag69
aF0.09718910802302697
ag71
aF0.2670280854550848
ag73
aF0.0
ag75
aF-0.20100937326066573
ag77
aF-0.267193702396271
ag78
aF0.0
ag79
aF-0.3255242138421198
ag80
aF-0.18859084303721294
ag81
aF-0.18400225019507002
ag82
aF0.08898118729900692
ag83
aF0.07725676209686312
ag84
aF0.30890462808993835
ag85
aF0.27573179375761264
ag86
aF-0.22567057590093081
ag87
aF0.1324834833644859
ag88
aF-0.6036360563503614
ag89
aF0.0
ag90
aF-0.24080922623907797
ag91
aF0.5571975281908929
ag92
aF-0.0
ag93
aF0.562358938777269
ag94
aF-0.059353252263934064
ag95
aF-0.4508636956384286
ag96
aF-0.056600860927757984
ag97
aF-0.6016539676436137
ag98
aF-0.19891343521716906
ag99
aF-0.1265235743962628
ag100
aF0.0
ag101
aF-0.4982078866714401
ag102
aF0.19210918165256122
ag103
aF0.37277818426587683
ag104
aF-0.23832587614146586
ag105
aF0.2773021026322768
ag106
aF-0.35420341806361477
ag107
aF-0.27768289418314906
ag108
aF-0.01997241207677802
ag109
aF0.04535342630939054
ag110
aF-0.0444765227041086
ag111
aF0.0
ag112
aF0.13006875570570647
ag113
aF0.005063648051736353
ag114
aF0.1329072301814272
ag115
aF-0.0013445019477754533
ag116
aF-0.0
ag117
aF0.4240606827528056
ag118
aF0.08003715750460678
ag119
aF-0.007004959432168401
ag120
aF0.13575149684187163
ag121
aF0.9847917273671059
ag122
aF0.0
ag123
aF-0.42384730209193894
ag124
aF-0.36010479067684603
ag125
aF0.21321271680920034
ag126
aF0.02590721850988119
ag127
aF0.11286412640076181
ag128
aF0.04568068897937661
ag129
aF0.18449217628375636
ag130
aF0.21930771796487245
ag131
aF0.06452051540024885
ag132
aF-0.3475225364969508
ag133
aF0.0
ag134
aF0.23803203460088534
ag135
aF0.4124223022329554
ag136
aF-0.12944258481244406
ag137
aF0.22016959761194208
ag138
aF0.11858228491029274
ag139
aF-0.01251976577629651
ag140
aF-0.0865493897757174
ag141
aF0.4455655411046255
ag142
aF-0.1742467412516876
ag143
aF0.13235800084258723
ag144
aF0.0
ag145
aF0.04122688627869796
ag146
aF0.15801368841249377
ag147
aF0.02245134621673011
ag148
aF0.12016697743212372
ag149
aF-0.1086296203654833
ag150
aF0.11690957570035776
ag151
aF-0.0025403292742501643
ag152
aF0.10672891983699072
ag153
aF0.2933221076597618
ag154
aF0.028418120384476914
ag155
aF0.0
ag156
aF0.25814706108741087
ag157
aF-0.26344260757431637
ag158
aF-0.11913501796221594
ag159
aF-0.017342347530695117
ag160
aF-0.19182924732717033
ag161
aF-0.0
ag162
aF0.01041148946175566
ag163
aF-0.12413996708853342
ag164
aF0.22356618237654527
ag165
aF0.3395486313812959
ag166
aF0.0
ag167
aF0.0
ag59
aF-0.0040023624791931
ag61
aF0.13680830031613309
ag63
aF-0.16175429405359093
ag65
aF-1.0655037018633955
ag67
aF0.17184838320509205
ag69
aF-0.01724762509086468
ag71
aF0.09075247706194953
ag73
aF0.03851814325592899
ag75
aF-0.2541726789590479
ag77
aF-0.04721911707159753
ag78
aF0.0
ag79
aF-0.2470347655593714
ag80
aF-0.07714746102027567
ag81
aF0.2879406152735212
ag82
aF0.05325464811626645
ag83
aF-0.08697992960005804
ag84
aF0.31407540509219767
ag85
aF0.5152701946157945
ag86
aF-0.2035927780650441
ag87
aF0.8107489898918119
ag88
aF-0.5721077039670691
ag89
aF0.0
ag90
aF-0.05560619743158533
ag91
aF1.2151880445317491
ag92
aF0.06116377032623857
ag93
aF0.4386231995113768
ag94
aF0.0
ag95
aF-0.3351148350943037
ag96
aF0.1102887896653475
ag97
aF-0.587130935260394
ag98
aF-0.11462628279575106
ag99
aF-0.03329050257755505
ag100
aF0.0
ag101
aF-0.6012607293513015
ag102
aF0.22687470086174225
ag103
aF0.21266952154089974
ag104
aF-0.27485283630765184
ag105
aF0.35626024893858643
ag106
aF-0.5270725497862785
ag107
aF-0.24115384236960108
ag108
aF0.021007559203461753
ag109
aF0.04571236649466553
ag110
aF-0.03748510669606586
ag111
aF0.0
ag112
aF0.09498225662303708
ag113
aF-0.0
ag114
aF0.0
ag115
aF-0.01038278573419661
ag116
aF-0.0673633443477448
ag117
aF0.37281023072728603
ag118
aF0.03203988141414397
ag119
aF0.028119180352317814
ag120
aF0.15144029372010714
ag121
aF1.022486466823985
ag122
aF0.0
ag123
aF-0.6115415748283755
ag124
aF-0.007389778740391825
ag125
aF0.45733933219412515
ag126
aF0.036897934537240745
ag127
aF-0.05644676341682519
ag128
aF-0.042955016327906735
ag129
aF0.1075473578249764
ag130
aF0.08571142135338988
ag131
aF0.0
ag132
aF-0.34137324906138605
ag133
aF0.0
ag134
aF0.25587099371811145
ag135
aF0.4828356690868817
ag136
aF-0.2375091663845825
ag137
aF0.12031642029174723
ag138
aF0.16085988439303753
ag139
aF0.002206030196429831
ag140
aF-0.11146940200833948
ag141
aF0.0
ag142
aF-0.008899740429471193
ag143
aF0.25327763376138585
ag144
aF0.0
ag145
aF-0.12539503496059004
ag146
aF0.33333602645582633
ag147
aF0.0811941119053688
ag148
aF0.20092820884423357
ag149
aF-0.061165774372933475
ag150
aF0.09593058725167669
ag151
aF-0.05323899280838687
ag152
aF0.1705311862045928
ag153
aF0.34267461113156805
ag154
aF-0.08866019050461721
ag155
aF0.0
ag156
aF0.2408240230280484
ag157
aF-0.3696478600116076
ag158
aF-0.12452508348427245
ag159
aF0.02056522685903847
ag160
aF-0.20326831333912374
ag161
aF-0.4054059919862779
ag162
aF0.026890855234980093
ag163
aF-0.25738590187747973
ag164
aF0.381299591427028
ag165
aF0.3622692010048764
ag166
aF0.0
ag167
aF0.0
ag59
aF0.09352773692862765
ag61
aF0.1439672136860777
ag63
aF-0.27611909120990946
ag65
aF-0.9378698234234872
ag67
aF0.13042521477467095
ag69
aF0.013461900275366503
ag71
aF0.09877349950369523
ag73
aF-0.03717902379296221
ag75
aF-0.5144490121899953
ag77
aF0.2149680498890474
ag78
aF0.0
ag79
aF-0.3665901250416444
ag80
aF0.13878680992043851
ag81
aF0.529933770985716
ag82
aF0.04096972636003189
ag83
aF0.08506516121939772
ag84
aF0.16307974288676674
ag85
aF0.011685166190486302
ag86
aF0.2218322411988116
ag87
aF0.621341811554065
ag88
aF-0.628263908504324
ag89
aF0.0
ag90
aF0.18125193896090414
ag91
aF1.3635675976517072
ag92
aF0.11024126969477775
ag93
aF-0.0068545000162145465
ag94
aF0.2222281665162449
ag95
aF-0.46015777202495506
ag96
aF0.5614926139399615
ag97
aF-0.9721369812302405
ag98
aF0.2008273012711736
ag99
aF0.14128244442066032
ag100
aF0.0
ag101
aF-0.9712416801227888
ag102
aF0.3424287168546897
ag103
aF0.1160015681440306
ag104
aF-0.09730237676110545
ag105
aF0.148445992023197
ag106
aF-0.7037587354491996
ag107
aF-0.18752604722504274
ag108
aF0.04283632562738451
ag109
aF0.06524201089928984
ag110
aF-0.046715932925042246
ag111
aF0.0
ag112
aF0.06600059706205372
ag113
aF0.07654336250778154
ag114
aF0.0
ag115
aF-0.07044358895672703
ag116
aF-0.2252384284340267
ag117
aF0.4786586717288316
ag118
aF0.02783277674472904
ag119
aF0.07962498163490672
ag120
aF0.3327188515495171
ag121
aF1.2258224787640113
ag122
aF0.0
ag123
aF-0.3435281549862525
ag124
aF-0.05024692318330577
ag125
aF0.4048971156317315
ag126
aF0.5824118340115277
ag127
aF0.0298185461268798
ag128
aF0.06780633380628578
ag129
aF-0.0021381356006433872
ag130
aF0.060546784529076414
ag131
aF0.7077520722896496
ag132
aF-0.1942670491464744
ag133
aF0.0
ag134
aF0.22565403249344626
ag135
aF0.25657716768814276
ag136
aF-0.01446664856508136
ag137
aF0.14499689036182697
ag138
aF0.09890124133944592
ag139
aF0.08861935727236532
ag140
aF-0.06362030513019903
ag141
aF0.0
ag142
aF-0.01629889135571238
ag143
aF0.19618319299140882
ag144
aF0.0
ag145
aF0.16637134079328342
ag146
aF0.26227582027878404
ag147
aF-0.024668227465757867
ag148
aF0.0005250136417887519
ag149
aF-0.16395528451860364
ag150
aF0.08222147076512545
ag151
aF-0.3770272889823392
ag152
aF0.14471046025633022
ag153
aF0.16472516763254993
ag154
aF0.13887657299799383
ag155
aF0.0
ag156
aF-0.03118467238957845
ag157
aF-0.5758609207978248
ag158
aF0.10543948285050439
ag159
aF0.14262002435442295
ag160
aF-0.2189086330554184
ag161
aF-1.2387874000444914
ag162
aF0.18635355504341464
ag163
aF-0.0
ag164
aF0.18904046592109297
ag165
aF-0.06364982863658866
ag166
aF0.0
ag167
atp168
ba(lp169
g10
(g11
(I0
tp170
g13
tp171
Rp172
((I1
(I17
tp173
g20
I00
S'\x00\x00\x00\x00\x00\x00\x00\x00\x01\x00\x00\x00\x00\x00\x00\x00\x02\x00\x00\x00\x00\x00\x00\x00\x03\x00\x00\x00\x00\x00\x00\x00\x04\x00\x00\x00\x00\x00\x00\x00\x05\x00\x00\x00\x00\x00\x00\x00\x06\x00\x00\x00\x00\x00\x00\x00\x07\x00\x00\x00\x00\x00\x00\x00\x08\x00\x00\x00\x00\x00\x00\x00\t\x00\x00\x00\x00\x00\x00\x00\n\x00\x00\x00\x00\x00\x00\x00\x0b\x00\x00\x00\x00\x00\x00\x00\x0c\x00\x00\x00\x00\x00\x00\x00\r\x00\x00\x00\x00\x00\x00\x00\x0e\x00\x00\x00\x00\x00\x00\x00\x0f\x00\x00\x00\x00\x00\x00\x00\x10\x00\x00\x00\x00\x00\x00\x00'
p174
tp175
(Ntp176
tp177
batp178
bbag1
(g2
g3
Ntp179
Rp180
g1
(g6
g3
Ntp181
Rp182
((lp183
g10
(g11
(I0
tp184
g13
tp185
Rp186
((I1
(I17
tp187
g20
I00
S'\x00\x00\x00\x00\x00\x00\x00\x00\x01\x00\x00\x00\x00\x00\x00\x00\x02\x00\x00\x00\x00\x00\x00\x00\x03\x00\x00\x00\x00\x00\x00\x00\x04\x00\x00\x00\x00\x00\x00\x00\x05\x00\x00\x00\x00\x00\x00\x00\x06\x00\x00\x00\x00\x00\x00\x00\x07\x00\x00\x00\x00\x00\x00\x00\x08\x00\x00\x00\x00\x00\x00\x00\t\x00\x00\x00\x00\x00\x00\x00\n\x00\x00\x00\x00\x00\x00\x00\x0b\x00\x00\x00\x00\x00\x00\x00\x0c\x00\x00\x00\x00\x00\x00\x00\r\x00\x00\x00\x00\x00\x00\x00\x0e\x00\x00\x00\x00\x00\x00\x00\x0f\x00\x00\x00\x00\x00\x00\x00\x10\x00\x00\x00\x00\x00\x00\x00'
p188
tp189
(Ntp190
tp191
bag10
(g11
(I0
tp192
g13
tp193
Rp194
((I1
(I100
tp195
g20
I00
S'\x00\x00\x00\x00\x00\x00\x00\x00\x01\x00\x00\x00\x00\x00\x00\x00\x02\x00\x00\x00\x00\x00\x00\x00\x03\x00\x00\x00\x00\x00\x00\x00\x04\x00\x00\x00\x00\x00\x00\x00\x05\x00\x00\x00\x00\x00\x00\x00\x06\x00\x00\x00\x00\x00\x00\x00\x07\x00\x00\x00\x00\x00\x00\x00\x08\x00\x00\x00\x00\x00\x00\x00\t\x00\x00\x00\x00\x00\x00\x00\n\x00\x00\x00\x00\x00\x00\x00\x0b\x00\x00\x00\x00\x00\x00\x00\x0c\x00\x00\x00\x00\x00\x00\x00\r\x00\x00\x00\x00\x00\x00\x00\x0e\x00\x00\x00\x00\x00\x00\x00\x0f\x00\x00\x00\x00\x00\x00\x00\x10\x00\x00\x00\x00\x00\x00\x00\x11\x00\x00\x00\x00\x00\x00\x00\x12\x00\x00\x00\x00\x00\x00\x00\x13\x00\x00\x00\x00\x00\x00\x00\x14\x00\x00\x00\x00\x00\x00\x00\x15\x00\x00\x00\x00\x00\x00\x00\x16\x00\x00\x00\x00\x00\x00\x00\x17\x00\x00\x00\x00\x00\x00\x00\x18\x00\x00\x00\x00\x00\x00\x00\x19\x00\x00\x00\x00\x00\x00\x00\x1a\x00\x00\x00\x00\x00\x00\x00\x1b\x00\x00\x00\x00\x00\x00\x00\x1c\x00\x00\x00\x00\x00\x00\x00\x1d\x00\x00\x00\x00\x00\x00\x00\x1e\x00\x00\x00\x00\x00\x00\x00\x1f\x00\x00\x00\x00\x00\x00\x00 \x00\x00\x00\x00\x00\x00\x00!\x00\x00\x00\x00\x00\x00\x00"\x00\x00\x00\x00\x00\x00\x00#\x00\x00\x00\x00\x00\x00\x00$\x00\x00\x00\x00\x00\x00\x00%\x00\x00\x00\x00\x00\x00\x00&\x00\x00\x00\x00\x00\x00\x00\'\x00\x00\x00\x00\x00\x00\x00(\x00\x00\x00\x00\x00\x00\x00)\x00\x00\x00\x00\x00\x00\x00*\x00\x00\x00\x00\x00\x00\x00+\x00\x00\x00\x00\x00\x00\x00,\x00\x00\x00\x00\x00\x00\x00-\x00\x00\x00\x00\x00\x00\x00.\x00\x00\x00\x00\x00\x00\x00/\x00\x00\x00\x00\x00\x00\x000\x00\x00\x00\x00\x00\x00\x001\x00\x00\x00\x00\x00\x00\x002\x00\x00\x00\x00\x00\x00\x003\x00\x00\x00\x00\x00\x00\x004\x00\x00\x00\x00\x00\x00\x005\x00\x00\x00\x00\x00\x00\x006\x00\x00\x00\x00\x00\x00\x007\x00\x00\x00\x00\x00\x00\x008\x00\x00\x00\x00\x00\x00\x009\x00\x00\x00\x00\x00\x00\x00:\x00\x00\x00\x00\x00\x00\x00;\x00\x00\x00\x00\x00\x00\x00<\x00\x00\x00\x00\x00\x00\x00=\x00\x00\x00\x00\x00\x00\x00>\x00\x00\x00\x00\x00\x00\x00?\x00\x00\x00\x00\x00\x00\x00@\x00\x00\x00\x00\x00\x00\x00A\x00\x00\x00\x00\x00\x00\x00B\x00\x00\x00\x00\x00\x00\x00C\x00\x00\x00\x00\x00\x00\x00D\x00\x00\x00\x00\x00\x00\x00E\x00\x00\x00\x00\x00\x00\x00F\x00\x00\x00\x00\x00\x00\x00G\x00\x00\x00\x00\x00\x00\x00H\x00\x00\x00\x00\x00\x00\x00I\x00\x00\x00\x00\x00\x00\x00J\x00\x00\x00\x00\x00\x00\x00K\x00\x00\x00\x00\x00\x00\x00L\x00\x00\x00\x00\x00\x00\x00M\x00\x00\x00\x00\x00\x00\x00N\x00\x00\x00\x00\x00\x00\x00O\x00\x00\x00\x00\x00\x00\x00P\x00\x00\x00\x00\x00\x00\x00Q\x00\x00\x00\x00\x00\x00\x00R\x00\x00\x00\x00\x00\x00\x00S\x00\x00\x00\x00\x00\x00\x00T\x00\x00\x00\x00\x00\x00\x00U\x00\x00\x00\x00\x00\x00\x00V\x00\x00\x00\x00\x00\x00\x00W\x00\x00\x00\x00\x00\x00\x00X\x00\x00\x00\x00\x00\x00\x00Y\x00\x00\x00\x00\x00\x00\x00Z\x00\x00\x00\x00\x00\x00\x00[\x00\x00\x00\x00\x00\x00\x00\\\x00\x00\x00\x00\x00\x00\x00]\x00\x00\x00\x00\x00\x00\x00^\x00\x00\x00\x00\x00\x00\x00_\x00\x00\x00\x00\x00\x00\x00`\x00\x00\x00\x00\x00\x00\x00a\x00\x00\x00\x00\x00\x00\x00b\x00\x00\x00\x00\x00\x00\x00c\x00\x00\x00\x00\x00\x00\x00'
p196
tp197
(Ntp198
tp199
bag10
(g35
(I0
tp200
g13
tp201
Rp202
((I1
(I2
tp203
g42
I00
(lp204
S'p-means'
p205
ag47
atp206
(Ntp207
tp208
ba(lp209
g10
(g52
(I0
tp210
g13
tp211
Rp212
(I1
(I17
I100
I2
tp213
g42
I00
(lp214
F0.0
ag59
aF-0.0578712872778946
ag61
aF-0.044481759048343124
ag63
aF-0.051210763919787856
ag65
aF-0.037750822585280376
ag67
aF-0.061986042574540344
ag69
aF-0.05265159681122503
ag71
aF-0.04518722345162447
ag73
aF-0.05593332849938498
ag75
aF-0.06548890718020083
ag77
aF-0.05472550320394516
ag78
aF0.0
ag79
aF-0.052631200889190245
ag80
aF-0.04522075456008879
ag81
aF-0.06349583184778525
ag82
aF-0.041726019361548884
ag83
aF-0.0344710097439847
ag84
aF-0.06275923211736138
ag85
aF-0.0491422464770356
ag86
aF-0.04352663905444007
ag87
aF-0.04806705593785711
ag88
aF-0.05408400115019749
ag89
aF0.0
ag90
aF-0.05068449929157243
ag91
aF-0.055163120916561496
ag92
aF-0.04425815517143992
ag93
aF-0.03589967750443906
ag94
aF-0.04141872110412288
ag95
aF-0.04742770627107612
ag96
aF-0.055043645363094494
ag97
aF-0.051021624123643625
ag98
aF-0.040563031188076686
ag99
aF-0.05102853926079339
ag100
aF0.0
ag101
aF-0.04007572706756701
ag102
aF-0.04544481865510375
ag103
aF-0.05078969213805898
ag104
aF-0.048346059926922764
ag105
aF-0.0506293167179414
ag106
aF-0.052340333050017854
ag107
aF-0.04313448626062953
ag108
aF-0.0670600160323155
ag109
aF-0.06076413147713609
ag110
aF-0.03956398249409933
ag111
aF0.0
ag112
aF-0.050111199602330965
ag113
aF-0.03971163566172995
ag114
aF-0.05485162218875494
ag115
aF-0.0495618431996583
ag116
aF-0.05054689841758354
ag117
aF-0.06313832072781934
ag118
aF-0.04563870599675048
ag119
aF-0.03975106308612013
ag120
aF-0.03966981428919653
ag121
aF-0.051505431621116864
ag122
aF0.0
ag123
aF-0.04608511012745117
ag124
aF-0.043163179610898904
ag125
aF-0.05142375077903122
ag126
aF-0.046876831209482606
ag127
aF-0.04544085556413357
ag128
aF-0.03961626017382148
ag129
aF-0.03555813596448326
ag130
aF-0.045615995336474126
ag131
aF-0.03762018617270717
ag132
aF-0.04654982846767611
ag133
aF0.0
ag134
aF-0.045725090225160865
ag135
aF-0.052597099003401725
ag136
aF-0.041357377360923896
ag137
aF-0.05336131284283439
ag138
aF-0.06993164976724496
ag139
aF-0.03991262895238173
ag140
aF-0.04596159453081524
ag141
aF-0.05772683049320366
ag142
aF-0.04273786318598201
ag143
aF-0.05039307950278629
ag144
aF0.0
ag145
aF-0.05400559573113919
ag146
aF-0.04629887016872064
ag147
aF-0.055407184535525456
ag148
aF-0.05138601419383639
ag149
aF-0.042159508353336525
ag150
aF-0.052132532876011016
ag151
aF-0.05015618815472594
ag152
aF-0.048403677305555906
ag153
aF-0.04516467817756191
ag154
aF-0.04552799816067466
ag155
aF0.0
ag156
aF-0.056598212108060535
ag157
aF-0.05585697163262537
ag158
aF-0.03921408497383577
ag159
aF-0.0512437420625821
ag160
aF-0.05027892622145061
ag161
aF-0.041019126700870406
ag162
aF-0.05482059344843625
ag163
aF-0.042331720806572146
ag164
aF-0.049777613030493925
ag165
aF-0.05549516698093101
ag166
aF0.0
ag167
aF0.0
ag59
aF-0.0734284533539792
ag61
aF-0.06842514064670062
ag63
aF-0.09278733067195725
ag65
aF-0.0722441821067746
ag67
aF-0.0779803703040973
ag69
aF-0.08304952345670367
ag71
aF-0.0822498173421955
ag73
aF-0.09349619728852634
ag75
aF-0.09450889116759618
ag77
aF-0.06813153389815525
ag78
aF0.0
ag79
aF-0.07435469018372008
ag80
aF-0.07785497252076687
ag81
aF-0.09053681602166473
ag82
aF-0.07079010821675454
ag83
aF-0.06550152452512244
ag84
aF-0.07304112840128434
ag85
aF-0.07977741453409905
ag86
aF-0.07601232982556308
ag87
aF-0.07387555189567097
ag88
aF-0.07948761006292034
ag89
aF0.0
ag90
aF-0.06573410855828256
ag91
aF-0.0862340264965384
ag92
aF-0.08868043350777882
ag93
aF-0.07176265475526289
ag94
aF-0.09235959082660815
ag95
aF-0.07036029548697664
ag96
aF-0.09522112304807055
ag97
aF-0.0883900240334528
ag98
aF-0.07521887934965645
ag99
aF-0.06410247950979464
ag100
aF0.0
ag101
aF-0.0889959877756214
ag102
aF-0.09523462045423936
ag103
aF-0.08736151008660571
ag104
aF-0.07899320704824504
ag105
aF-0.08492906741052231
ag106
aF-0.08690387375974873
ag107
aF-0.06796339971792491
ag108
aF-0.08905308029369384
ag109
aF-0.07534605553919752
ag110
aF-0.08473331621560956
ag111
aF0.0
ag112
aF-0.08017569456493445
ag113
aF-0.09245541213108655
ag114
aF-0.07693836570866412
ag115
aF-0.07269104365876145
ag116
aF-0.08361523724578057
ag117
aF-0.07861335984790224
ag118
aF-0.07290874956822238
ag119
aF-0.08628794992281576
ag120
aF-0.08677265112869868
ag121
aF-0.08478091343404177
ag122
aF0.0
ag123
aF-0.07478045764507506
ag124
aF-0.07915613565663752
ag125
aF-0.09215689540098498
ag126
aF-0.08827447248738045
ag127
aF-0.08295246626937289
ag128
aF-0.06396238100198945
ag129
aF-0.07845187159938148
ag130
aF-0.0833082842902851
ag131
aF-0.09064594872583259
ag132
aF-0.08208476300698181
ag133
aF0.0
ag134
aF-0.08678238642371605
ag135
aF-0.08111505066620624
ag136
aF-0.08333290638365778
ag137
aF-0.08422440682182537
ag138
aF-0.08656709579564033
ag139
aF-0.09900868039402594
ag140
aF-0.08427071468092681
ag141
aF-0.08373345822186222
ag142
aF-0.08102122351776297
ag143
aF-0.07976716690542751
ag144
aF0.0
ag145
aF-0.08862574192036617
ag146
aF-0.09120114214621955
ag147
aF-0.08514457473627055
ag148
aF-0.08079715793178058
ag149
aF-0.06864020747156295
ag150
aF-0.08344914688065944
ag151
aF-0.07756130614671447
ag152
aF-0.08747589925916441
ag153
aF-0.08011611745734001
ag154
aF-0.09124928053298795
ag155
aF0.0
ag156
aF-0.07928799778423112
ag157
aF-0.09229786918197866
ag158
aF-0.08153413632317663
ag159
aF-0.09715617652382169
ag160
aF-0.0892940364005505
ag161
aF-0.07892582027556513
ag162
aF-0.08396618153408392
ag163
aF-0.08193435624544852
ag164
aF-0.09509521101576644
ag165
aF-0.08219749918295795
ag166
aF0.0
ag167
aF0.0
ag59
aF-0.06666749066981764
ag61
aF-0.04764352887329181
ag63
aF-0.07031634277278719
ag65
aF-0.0518279751834884
ag67
aF-0.060469779894870526
ag69
aF-0.08121004972600818
ag71
aF-0.0590298862187285
ag73
aF-0.06853243273895462
ag75
aF-0.07132532431077758
ag77
aF-0.06871848889632898
ag78
aF0.0
ag79
aF-0.07171770784803848
ag80
aF-0.07062910493290371
ag81
aF-0.0716266534326976
ag82
aF-0.09164225607934698
ag83
aF-0.07368532489487976
ag84
aF-0.07228956733910269
ag85
aF-0.05468241205325598
ag86
aF-0.0761526722316753
ag87
aF-0.05279198619612776
ag88
aF-0.07042784479003289
ag89
aF0.0
ag90
aF-0.06199273612491662
ag91
aF-0.07305807113671038
ag92
aF-0.0465267881176283
ag93
aF-0.07249381220528242
ag94
aF-0.06608790778884378
ag95
aF-0.08183027276652896
ag96
aF-0.06283965959253492
ag97
aF-0.07583228448902785
ag98
aF-0.07680115892242274
ag99
aF-0.059070082692369456
ag100
aF0.0
ag101
aF-0.057474917935030914
ag102
aF-0.07833718332469439
ag103
aF-0.058599954058650004
ag104
aF-0.06190899780341207
ag105
aF-0.07732858937722495
ag106
aF-0.06848907333100236
ag107
aF-0.061568700430758634
ag108
aF-0.07237131606959309
ag109
aF-0.06501690966959707
ag110
aF-0.06506989906505634
ag111
aF0.0
ag112
aF-0.06949478409913606
ag113
aF-0.07543698214483995
ag114
aF-0.07076512060782797
ag115
aF-0.058792044794136814
ag116
aF-0.06207129464542845
ag117
aF-0.06642119941783224
ag118
aF-0.09026120649636298
ag119
aF-0.0506701475480387
ag120
aF-0.0756363437478768
ag121
aF-0.0660395290988945
ag122
aF0.0
ag123
aF-0.07171758291262637
ag124
aF-0.06307558427855466
ag125
aF-0.06550206407150592
ag126
aF-0.0777508923510127
ag127
aF-0.07723390510196122
ag128
aF-0.07847515028369051
ag129
aF-0.06388972857607673
ag130
aF-0.05584073515033803
ag131
aF-0.07417920783913189
ag132
aF-0.07168384230257523
ag133
aF0.0
ag134
aF-0.06682309617565414
ag135
aF-0.06585785892186975
ag136
aF-0.07153788952341265
ag137
aF-0.06460889148584403
ag138
aF-0.07990011339964737
ag139
aF-0.06847111742207024
ag140
aF-0.061190432444470234
ag141
aF-0.07027525478778271
ag142
aF-0.06518383329790273
ag143
aF-0.0629100096240196
ag144
aF0.0
ag145
aF-0.060101696443252174
ag146
aF-0.06483100206649518
ag147
aF-0.06352012344871891
ag148
aF-0.05342407754538045
ag149
aF-0.07608466996576245
ag150
aF-0.07811466962096396
ag151
aF-0.06686022487077664
ag152
aF-0.06276571413799538
ag153
aF-0.06002350254596302
ag154
aF-0.057676833419044046
ag155
aF0.0
ag156
aF-0.07128611862438917
ag157
aF-0.0740332748596674
ag158
aF-0.08171360354135787
ag159
aF-0.0679344901803548
ag160
aF-0.07159832929139288
ag161
aF-0.05725564757666776
ag162
aF-0.07788002064195226
ag163
aF-0.07835745723291734
ag164
aF-0.07142514513434285
ag165
aF-0.07836348721659897
ag166
aF0.0
ag167
aF0.0
ag59
aF-0.045961955048068645
ag61
aF-0.058224114385645724
ag63
aF-0.03618658058261563
ag65
aF-0.052919270373504725
ag67
aF-0.05895135979201972
ag69
aF-0.036156818126746405
ag71
aF-0.048191606999922004
ag73
aF-0.055481379994936325
ag75
aF-0.0352487809976341
ag77
aF-0.04559732245336469
ag78
aF0.0
ag79
aF-0.05031672440158444
ag80
aF-0.05166715089795939
ag81
aF-0.05559291963519065
ag82
aF-0.05158909306552803
ag83
aF-0.04908752865971795
ag84
aF-0.0480904467288658
ag85
aF-0.05440328771990563
ag86
aF-0.058929205931838646
ag87
aF-0.05612278947039959
ag88
aF-0.04781553783203729
ag89
aF0.0
ag90
aF-0.027652231545792345
ag91
aF-0.04791747837912955
ag92
aF-0.05548509176649262
ag93
aF-0.046593433130646726
ag94
aF-0.046235416939644135
ag95
aF-0.049369799843922126
ag96
aF-0.05638551353646695
ag97
aF-0.03478581478870454
ag98
aF-0.04822786583901439
ag99
aF-0.030687378068221312
ag100
aF0.0
ag101
aF-0.024056112286060534
ag102
aF-0.04038373186349667
ag103
aF-0.04093924634567533
ag104
aF-0.04451965726274953
ag105
aF-0.04233486404709198
ag106
aF-0.059108037300395135
ag107
aF-0.0564008185664179
ag108
aF-0.05032620508859249
ag109
aF-0.05001359361829837
ag110
aF-0.025477250381297573
ag111
aF0.0
ag112
aF-0.04560383283059016
ag113
aF-0.04921950896007853
ag114
aF-0.05392517912810983
ag115
aF-0.05141289650966804
ag116
aF-0.038973637727602414
ag117
aF-0.058286942528916405
ag118
aF-0.056817130926383394
ag119
aF-0.05570093992743677
ag120
aF-0.04454566198568965
ag121
aF-0.04725876048792453
ag122
aF0.0
ag123
aF-0.03281168310638655
ag124
aF-0.06684871459638933
ag125
aF-0.03917337993452246
ag126
aF-0.05279383258705496
ag127
aF-0.03952403604173091
ag128
aF-0.052328595833650564
ag129
aF-0.047883903271962354
ag130
aF-0.044496254008668135
ag131
aF-0.05320110076190025
ag132
aF-0.03140700670204813
ag133
aF0.0
ag134
aF-0.051920121360923534
ag135
aF-0.05440147650730981
ag136
aF-0.04953237386120132
ag137
aF-0.05351591757358178
ag138
aF-0.04235370346797243
ag139
aF-0.04497291602952946
ag140
aF-0.04760084524886383
ag141
aF-0.05090366959657073
ag142
aF-0.07064650139317635
ag143
aF-0.05633425681712049
ag144
aF0.0
ag145
aF-0.050977403807629294
ag146
aF-0.05796836353922559
ag147
aF-0.05859117666410466
ag148
aF-0.04961682253361487
ag149
aF-0.045699095270591204
ag150
aF-0.0531159757934179
ag151
aF-0.05323877057853261
ag152
aF-0.04289810512806606
ag153
aF-0.04901128313941197
ag154
aF-0.04378862745951024
ag155
aF0.0
ag156
aF-0.04492583311290359
ag157
aF-0.03851585007527914
ag158
aF-0.0603600740329205
ag159
aF-0.05702285476370008
ag160
aF-0.05525671839347855
ag161
aF-0.04511823896368401
ag162
aF-0.053423302569216374
ag163
aF-0.052033830708189774
ag164
aF-0.05342153885389626
ag165
aF-0.046297598079606136
ag166
aF0.0
ag167
aF0.0
ag59
aF-0.04280251022855729
ag61
aF-0.03274708209315564
ag63
aF-0.019999689013101063
ag65
aF-0.029311472695661818
ag67
aF-0.03714056666459028
ag69
aF-0.03482048348609889
ag71
aF-0.030941758740412786
ag73
aF-0.02997659533925257
ag75
aF-0.015681072233903217
ag77
aF-0.036301328492917916
ag78
aF0.0
ag79
aF-0.03399282896075559
ag80
aF-0.024031766239112413
ag81
aF-0.035891892078638875
ag82
aF-0.018023626728971006
ag83
aF-0.03760690230631567
ag84
aF-0.02612654650218313
ag85
aF-0.03219163659991769
ag86
aF-0.03627068228743502
ag87
aF-0.02839802785877938
ag88
aF-0.03718772858109412
ag89
aF0.0
ag90
aF-0.02978575313641585
ag91
aF-0.016017555583302357
ag92
aF-0.028783602365421955
ag93
aF-0.03109124993205065
ag94
aF-0.0192165002740606
ag95
aF-0.030902733914330315
ag96
aF-0.016564677656007745
ag97
aF-0.029238940151236497
ag98
aF-0.026811353137001472
ag99
aF-0.02688173827332652
ag100
aF0.0
ag101
aF-0.024398104497872695
ag102
aF-0.029328587612816138
ag103
aF-0.026607423248321053
ag104
aF-0.025369430828106023
ag105
aF-0.04449501200232816
ag106
aF-0.03399792898594412
ag107
aF-0.03046636696374305
ag108
aF-0.031478015488554494
ag109
aF-0.018588034452400863
ag110
aF-0.02142137992124129
ag111
aF0.0
ag112
aF-0.029076796720627254
ag113
aF-0.014420757651005197
ag114
aF-0.04693062904114586
ag115
aF-0.040122743468008634
ag116
aF-0.022719835559848287
ag117
aF-0.03717011038859967
ag118
aF-0.01621285044128904
ag119
aF-0.01968133199477803
ag120
aF-0.022200486378763488
ag121
aF-0.03606817359299608
ag122
aF0.0
ag123
aF-0.029025952184886086
ag124
aF-0.027535974369559364
ag125
aF-0.02602622564818135
ag126
aF-0.03092133870807777
ag127
aF-0.03412058006118208
ag128
aF-0.04005730797497077
ag129
aF-0.027478176925097266
ag130
aF-0.026883428534735753
ag131
aF-0.00739069583659753
ag132
aF-0.03306264668433115
ag133
aF0.0
ag134
aF-0.0454148825376625
ag135
aF-0.027880071901583526
ag136
aF-0.017876472270693985
ag137
aF-0.03407786315258381
ag138
aF-0.026510125722841494
ag139
aF-0.02046607045939125
ag140
aF-0.02178284513345275
ag141
aF-0.03791612802290664
ag142
aF-0.02223356024054189
ag143
aF-0.043202740683886645
ag144
aF0.0
ag145
aF-0.0319812828728743
ag146
aF-0.029255192866941372
ag147
aF-0.02753839420263745
ag148
aF-0.032424560931348934
ag149
aF-0.024446300456346208
ag150
aF-0.045372532930797224
ag151
aF-0.04398881242825406
ag152
aF-0.026134835398718324
ag153
aF-0.02684180507161619
ag154
aF-0.025267392199820243
ag155
aF0.0
ag156
aF-0.03288586085193148
ag157
aF-0.012644991110341109
ag158
aF-0.03748779278459855
ag159
aF-0.01913334971979278
ag160
aF-0.03721427059153274
ag161
aF-0.019423964335130023
ag162
aF-0.029453656462161647
ag163
aF-0.010650175255638432
ag164
aF-0.03324481727919388
ag165
aF-0.02888504249153153
ag166
aF0.0
ag167
aF0.0
ag59
aF0.004521967048522047
ag61
aF-0.004185255588417578
ag63
aF-0.010337454316104767
ag65
aF-0.0005520951615370238
ag67
aF0.008037714812629552
ag69
aF0.002659180533831613
ag71
aF0.016707046469442037
ag73
aF0.012771104041943709
ag75
aF-0.014338370546455391
ag77
aF0.007385450909970368
ag78
aF0.0
ag79
aF-0.007808964455246697
ag80
aF0.009975482738597505
ag81
aF-0.0002173138112092017
ag82
aF0.0034526208113605716
ag83
aF-0.010166579854116517
ag84
aF-0.017019784195144258
ag85
aF0.007850004114805803
ag86
aF-0.011429739068262315
ag87
aF0.0012016449452121158
ag88
aF-0.0074492931740858075
ag89
aF0.0
ag90
aF-0.0026682038306622374
ag91
aF-0.012518860066091146
ag92
aF0.001561963660792593
ag93
aF-0.018253997768978472
ag94
aF-0.004600674579217142
ag95
aF0.009151388189491036
ag96
aF0.002065761943745639
ag97
aF-0.01291776644916272
ag98
aF0.0073239541807840905
ag99
aF-0.0035841362452553637
ag100
aF0.0
ag101
aF-0.003777779197756608
ag102
aF-0.008823089398145183
ag103
aF-0.02082106929868831
ag104
aF2.224157194645617e-05
ag105
aF-0.0021914509187578404
ag106
aF0.003215041970775619
ag107
aF-0.005715793137185855
ag108
aF0.0034923328806778114
ag109
aF-0.011791069372062027
ag110
aF-0.006345885878476109
ag111
aF0.0
ag112
aF-0.010273615684114694
ag113
aF-0.01366634757378537
ag114
aF-0.007449608381524758
ag115
aF0.013938670932424452
ag116
aF-0.0016640073648990492
ag117
aF0.001632355018750357
ag118
aF0.00508419480368284
ag119
aF0.001244640629127195
ag120
aF-0.00842987929229679
ag121
aF-0.010103108643183029
ag122
aF0.0
ag123
aF-0.005043076051270831
ag124
aF-0.01097287873307377
ag125
aF0.001335682491956623
ag126
aF-0.010558562647361998
ag127
aF0.0026590892490140194
ag128
aF-0.02111787932017473
ag129
aF-0.018703708446221823
ag130
aF-0.019419337057760288
ag131
aF-0.013834817147749832
ag132
aF-0.007071320139641891
ag133
aF0.0
ag134
aF-0.02652230805928444
ag135
aF-0.0004170475351743767
ag136
aF-0.023868496455983473
ag137
aF0.007889670310585413
ag138
aF-0.015967785585675277
ag139
aF-0.0019292816170285087
ag140
aF-0.008445095627244742
ag141
aF-0.004362718416815937
ag142
aF-0.008751032563770706
ag143
aF-0.028149167434727045
ag144
aF0.0
ag145
aF-0.011631145208095254
ag146
aF-0.0013915993761252567
ag147
aF0.019095564641916606
ag148
aF-0.0019743253501733615
ag149
aF0.006801088904588148
ag150
aF0.0031141991373820205
ag151
aF0.015699756380842336
ag152
aF0.000267310721482478
ag153
aF0.004744528989686598
ag154
aF-0.013152785112431096
ag155
aF0.0
ag156
aF-0.008276940061973055
ag157
aF-0.01185306747459632
ag158
aF-0.01545412688262518
ag159
aF-0.0005905399778017185
ag160
aF0.003125113669348903
ag161
aF0.0050607548749211405
ag162
aF-0.00987538266907661
ag163
aF-0.030753578689286295
ag164
aF0.0021119429645432937
ag165
aF-0.011660879518019779
ag166
aF0.0
ag167
aF0.0
ag59
aF0.0021581831495379876
ag61
aF-0.00027466631333578843
ag63
aF-0.007466546453416948
ag65
aF-0.010997001206619
ag67
aF0.013623694374017293
ag69
aF-0.007040642612124152
ag71
aF0.010337339956733863
ag73
aF-0.00405146831561041
ag75
aF-1.8235058908259263e-05
ag77
aF0.004147618442635552
ag78
aF0.0
ag79
aF0.004526115151426133
ag80
aF-0.015155601396679853
ag81
aF0.0024034944172575817
ag82
aF-0.00527477685124271
ag83
aF-0.01231958938673072
ag84
aF-0.010212995741645265
ag85
aF0.005026722671802821
ag86
aF0.011855384386230731
ag87
aF-0.0025337154446874884
ag88
aF-0.0004985033609343819
ag89
aF0.0
ag90
aF0.000715542238628756
ag91
aF-0.0033709268240800245
ag92
aF-0.0069175201395517485
ag93
aF0.012277751384470676
ag94
aF0.011494634454302927
ag95
aF0.006847212465374499
ag96
aF0.0031624326071606327
ag97
aF-0.004269742977039055
ag98
aF-0.01482090750007696
ag99
aF-0.00020389290243288008
ag100
aF0.0
ag101
aF0.0035250578838406954
ag102
aF-0.007661789204955608
ag103
aF-0.004084181258239943
ag104
aF-0.0025041398270641683
ag105
aF0.0077801384755276735
ag106
aF-0.003128384322735811
ag107
aF-0.007013954442999849
ag108
aF-0.002062384480991534
ag109
aF-0.0023373557462492106
ag110
aF0.0003418488652299665
ag111
aF0.0
ag112
aF0.013932280088807833
ag113
aF-0.0022675856573376725
ag114
aF0.008338620502645925
ag115
aF-0.002554830919064249
ag116
aF0.0021337459672480354
ag117
aF0.012263494980753862
ag118
aF-0.001534514743135509
ag119
aF-0.01399286555071995
ag120
aF-0.00770926456317299
ag121
aF0.015252312101582406
ag122
aF0.0
ag123
aF-0.002158859636155892
ag124
aF0.006785954453478098
ag125
aF-0.0001394932118750315
ag126
aF-1.2429982991684469e-05
ag127
aF-0.00471587752383084
ag128
aF-0.015019999617402567
ag129
aF0.011599782126170808
ag130
aF-0.0027056775156538834
ag131
aF-0.0009767306234441098
ag132
aF0.002041689676444805
ag133
aF0.0
ag134
aF0.003592684013023207
ag135
aF0.007105127384819324
ag136
aF0.010714659966188351
ag137
aF0.01349636829540132
ag138
aF-0.008479381791272986
ag139
aF0.017000855174478406
ag140
aF-0.0026422589087365077
ag141
aF0.006272783234343619
ag142
aF0.01840872269376741
ag143
aF0.011771716209280123
ag144
aF0.0
ag145
aF0.009777450894640962
ag146
aF-0.0033399107605080356
ag147
aF-0.0009563605266799863
ag148
aF0.008046559485673399
ag149
aF0.006269137759246038
ag150
aF0.007272308566089517
ag151
aF-0.0058164499052771575
ag152
aF-0.004726899186515426
ag153
aF0.007977005908618849
ag154
aF0.005953963911734204
ag155
aF0.0
ag156
aF-0.006943341915510432
ag157
aF-0.006524006516579962
ag158
aF0.013416224092205543
ag159
aF0.0065833337805964185
ag160
aF-0.0062217970387349565
ag161
aF-0.0018311266575815391
ag162
aF-0.0010570538970675804
ag163
aF0.013481656937381008
ag164
aF-0.007970522115061784
ag165
aF-0.014913497610373139
ag166
aF0.0
ag167
aF0.0
ag59
aF0.03054410119608571
ag61
aF0.018917436118747376
ag63
aF0.027592164541660042
ag65
aF0.0389756631264697
ag67
aF0.025930512500828697
ag69
aF0.03911083305512594
ag71
aF0.02804882820835972
ag73
aF0.011228201025522404
ag75
aF0.021021321734664103
ag77
aF0.02452077413058235
ag78
aF0.0
ag79
aF0.023214404877149333
ag80
aF0.04319296170522555
ag81
aF0.02530966894063206
ag82
aF0.03642100346574847
ag83
aF0.03022471459600666
ag84
aF0.01951960191295939
ag85
aF0.028159518934858702
ag86
aF0.01383325357928979
ag87
aF0.024062428391630176
ag88
aF0.021849476146430954
ag89
aF0.0
ag90
aF0.03329699733121188
ag91
aF0.025156568799055083
ag92
aF0.03208361550030956
ag93
aF0.026014559824039295
ag94
aF0.027011077814507865
ag95
aF0.03141459937659032
ag96
aF0.03361045446051527
ag97
aF0.027729064954161418
ag98
aF0.03394038031646323
ag99
aF0.03260512696576569
ag100
aF0.0
ag101
aF0.03860220906055424
ag102
aF0.015291006732861396
ag103
aF0.02192360507887842
ag104
aF0.021120200202675198
ag105
aF0.011277736993462835
ag106
aF0.020044823969679
ag107
aF0.03358714064979374
ag108
aF0.027567451239130267
ag109
aF0.020780652534079472
ag110
aF0.03839791949706717
ag111
aF0.0
ag112
aF0.016132732827348215
ag113
aF0.03147136156516165
ag114
aF0.03301082912319466
ag115
aF0.02690844536738136
ag116
aF0.014517525152323038
ag117
aF0.025951574794892778
ag118
aF0.033509027812144515
ag119
aF0.036457403745581964
ag120
aF0.013870832384973695
ag121
aF0.01900150072979749
ag122
aF0.0
ag123
aF0.021254685519842397
ag124
aF0.020404794000747545
ag125
aF0.026432458459562717
ag126
aF0.026677662218151793
ag127
aF0.041950101839518125
ag128
aF0.032567082547462316
ag129
aF0.01940996094115821
ag130
aF0.02640099137612498
ag131
aF0.030248104021022123
ag132
aF0.029467299654790412
ag133
aF0.0
ag134
aF0.029436157488729155
ag135
aF0.019257128709012507
ag136
aF0.026802894186284072
ag137
aF0.029559345212562167
ag138
aF0.020770609047121563
ag139
aF0.022645369632979907
ag140
aF0.015339768410586069
ag141
aF0.032553057246376325
ag142
aF0.024134049551937344
ag143
aF0.026612045220065193
ag144
aF0.0
ag145
aF0.037786523201651497
ag146
aF0.02195700461300613
ag147
aF0.016113951897379273
ag148
aF0.03101675683165001
ag149
aF0.030477644881508677
ag150
aF0.004797065490402018
ag151
aF0.028697048692481197
ag152
aF0.023123901215233552
ag153
aF0.013958527993844847
ag154
aF0.04448416042539159
ag155
aF0.0
ag156
aF0.02053973519422243
ag157
aF0.022031123801921695
ag158
aF0.02143665971278744
ag159
aF0.036022356356507725
ag160
aF0.023106333633389146
ag161
aF0.009749552377121797
ag162
aF0.028083099688877167
ag163
aF0.03161847153337879
ag164
aF0.020041443688190653
ag165
aF0.028698703849234328
ag166
aF0.0
ag167
aF0.0
ag59
aF0.05352582243988191
ag61
aF0.04702284475198892
ag63
aF0.043077324372027305
ag65
aF0.04670507402999726
ag67
aF0.0291952304052752
ag69
aF0.043135224621770565
ag71
aF0.0392846752620846
ag73
aF0.05007881024271844
ag75
aF0.04972117856794995
ag77
aF0.04976363840287158
ag78
aF0.0
ag79
aF0.0354678823175473
ag80
aF0.04038375366320847
ag81
aF0.03945432111617497
ag82
aF0.03398747668588141
ag83
aF0.05676599521250299
ag84
aF0.03799926443591288
ag85
aF0.04489603843624531
ag86
aF0.04523910129723681
ag87
aF0.03936780053136965
ag88
aF0.03559500291248808
ag89
aF0.0
ag90
aF0.047720424495669475
ag91
aF0.045766804479271894
ag92
aF0.06035640697206567
ag93
aF0.058433498180084344
ag94
aF0.053714954918674736
ag95
aF0.03591846115220043
ag96
aF0.03625929682293586
ag97
aF0.03746762714604484
ag98
aF0.046390791746902055
ag99
aF0.04404866145110783
ag100
aF0.0
ag101
aF0.0526242918996052
ag102
aF0.06255437687543283
ag103
aF0.04519118705803684
ag104
aF0.03873388014017872
ag105
aF0.04844770925750752
ag106
aF0.056875391004162196
ag107
aF0.04417361141288054
ag108
aF0.049489904447453804
ag109
aF0.0362157980617746
ag110
aF0.05336428312008772
ag111
aF0.0
ag112
aF0.04834920416571373
ag113
aF0.047993991008542944
ag114
aF0.03918536904571141
ag115
aF0.06384849729582767
ag116
aF0.04747045631713992
ag117
aF0.04361588386329447
ag118
aF0.03954816647672055
ag119
aF0.06713255097985128
ag120
aF0.06170525636745402
ag121
aF0.044050219390361516
ag122
aF0.0
ag123
aF0.04206961071214844
ag124
aF0.04424040108256231
ag125
aF0.036950906764024856
ag126
aF0.04314707911579016
ag127
aF0.037859832497320105
ag128
aF0.0540001104817165
ag129
aF0.061737884883215625
ag130
aF0.039371115607633775
ag131
aF0.037774467540198045
ag132
aF0.04673858126752067
ag133
aF0.0
ag134
aF0.029480192515698608
ag135
aF0.04646400072801598
ag136
aF0.06058132687155917
ag137
aF0.03782133018146112
ag138
aF0.04212346679846971
ag139
aF0.04748895127440723
ag140
aF0.04385146068370612
ag141
aF0.04127105401468286
ag142
aF0.05664776087082505
ag143
aF0.04333958492883123
ag144
aF0.0
ag145
aF0.04342132718522911
ag146
aF0.03210489442255902
ag147
aF0.050657457020868754
ag148
aF0.0472491005403111
ag149
aF0.04053900522986793
ag150
aF0.046750399916346205
ag151
aF0.055302521120500804
ag152
aF0.042499852385911516
ag153
aF0.044270610166931734
ag154
aF0.0499740931730099
ag155
aF0.0
ag156
aF0.060888718569415606
ag157
aF0.052276239597719196
ag158
aF0.05094096620261513
ag159
aF0.0350031525699957
ag160
aF0.057606247185029734
ag161
aF0.05445423400167622
ag162
aF0.043185893132993224
ag163
aF0.054182254200603526
ag164
aF0.04325157463415523
ag165
aF0.059742115671672494
ag166
aF0.0
ag167
aF0.0
ag59
aF0.06065507850918891
ag61
aF0.07678803631279717
ag63
aF0.062436061284195175
ag65
aF0.05399948736597264
ag67
aF0.06577738683997601
ag69
aF0.06252850242626908
ag71
aF0.06194004764690201
ag73
aF0.05016525054578684
ag75
aF0.05893587489890805
ag77
aF0.07072656513717926
ag78
aF0.0
ag79
aF0.0558788151676128
ag80
aF0.045218598201018825
ag81
aF0.062119279507527145
ag82
aF0.07087061383028366
ag83
aF0.0641491873907687
ag84
aF0.05286920064327584
ag85
aF0.08770341088486366
ag86
aF0.04220952184938776
ag87
aF0.07023466672297164
ag88
aF0.05487999985200791
ag89
aF0.0
ag90
aF0.07188730471665897
ag91
aF0.054768225123219945
ag92
aF0.06099007748913767
ag93
aF0.06318956127940123
ag94
aF0.045300804470322864
ag95
aF0.05140576897946276
ag96
aF0.05605179658828614
ag97
aF0.05558213361913981
ag98
aF0.0484521993240856
ag99
aF0.07103547497091763
ag100
aF0.0
ag101
aF0.07171695351407073
ag102
aF0.07117812483141754
ag103
aF0.04602941232846237
ag104
aF0.058117929350802025
ag105
aF0.08623763356951068
ag106
aF0.06378083817644917
ag107
aF0.0618506267084243
ag108
aF0.06337048145052081
ag109
aF0.052248174686707775
ag110
aF0.07279338329016401
ag111
aF0.0
ag112
aF0.07159089893471382
ag113
aF0.05856850220504417
ag114
aF0.04443526146119253
ag115
aF0.0502136325697807
ag116
aF0.0625322987194298
ag117
aF0.059915942744514956
ag118
aF0.0664844434618118
ag119
aF0.06241771763315081
ag120
aF0.059597170356379764
ag121
aF0.07954002480450771
ag122
aF0.0
ag123
aF0.05677873806476886
ag124
aF0.06856501548757074
ag125
aF0.05973452823520175
ag126
aF0.030225405079465095
ag127
aF0.0550971948500632
ag128
aF0.06071401777253473
ag129
aF0.052271287084706713
ag130
aF0.04731350059594586
ag131
aF0.05993143129365531
ag132
aF0.0614569849366047
ag133
aF0.0
ag134
aF0.04382821186266729
ag135
aF0.04432344047069698
ag136
aF0.060182459700068594
ag137
aF0.05997633668313634
ag138
aF0.0602900288269606
ag139
aF0.04693523919865578
ag140
aF0.05721023707402764
ag141
aF0.05467522402775225
ag142
aF0.05950503451094738
ag143
aF0.04653304752884888
ag144
aF0.0
ag145
aF0.05208824941678174
ag146
aF0.06119717622765639
ag147
aF0.056190025807909716
ag148
aF0.08174306371590068
ag149
aF0.05452827436809155
ag150
aF0.07917162326430362
ag151
aF0.050485557115455305
ag152
aF0.04286672634475433
ag153
aF0.05937708894197605
ag154
aF0.06066319095186756
ag155
aF0.0
ag156
aF0.06510303802963535
ag157
aF0.060609437215063906
ag158
aF0.04326836280338318
ag159
aF0.05436328643765597
ag160
aF0.06506761716343139
ag161
aF0.07000294992504741
ag162
aF0.029485171885784568
ag163
aF0.05875405578659561
ag164
aF0.06387867877402428
ag165
aF0.06482296815178529
ag166
aF0.0
ag167
aF0.0
ag59
aF0.032543368792404416
ag61
aF0.03611606116442087
ag63
aF0.07580811461306397
ag65
aF0.05106784258162502
ag67
aF0.042876596488437516
ag69
aF0.05620161491520329
ag71
aF0.04267428116669795
ag73
aF0.06565231355418408
ag75
aF0.07244828894143833
ag77
aF0.021318920376747062
ag78
aF0.0
ag79
aF0.05348523149620348
ag80
aF0.0448989891858932
ag81
aF0.059541258057985255
ag82
aF0.040203883759604826
ag83
aF0.059549844291344405
ag84
aF0.04602927061152737
ag85
aF0.02462790025190555
ag86
aF0.044689140151741226
ag87
aF0.046051812017020265
ag88
aF0.059615744311844375
ag89
aF0.0
ag90
aF0.04130267045701114
ag91
aF0.05373649671165459
ag92
aF0.04912211776029483
ag93
aF0.06341061758220354
ag94
aF0.051032830558311586
ag95
aF0.04026977885653732
ag96
aF0.057480378607913996
ag97
aF0.07559994943755961
ag98
aF0.05287518697885141
ag99
aF0.03566996042978151
ag100
aF0.0
ag101
aF0.0299245253833469
ag102
aF0.033067264436695346
ag103
aF0.03929935647770658
ag104
aF0.05411080712750878
ag105
aF0.054717286260864244
ag106
aF0.05919964857389001
ag107
aF0.053849098469279946
ag108
aF0.06349337035199161
ag109
aF0.05259365165359131
ag110
aF0.023431825397924728
ag111
aF0.0
ag112
aF0.0588280820020843
ag113
aF0.03953199476248028
ag114
aF0.04493947157080653
ag115
aF0.057485745611996035
ag116
aF0.05433463234204239
ag117
aF0.04621320132676812
ag118
aF0.04337241008860877
ag119
aF0.05252509524866661
ag120
aF0.0397308255347695
ag121
aF0.053035915474284503
ag122
aF0.0
ag123
aF0.058473498769193284
ag124
aF0.05150068950240954
ag125
aF0.05218823070544222
ag126
aF0.05334675274390904
ag127
aF0.048726383014900614
ag128
aF0.06554934625921345
ag129
aF0.06882643648797884
ag130
aF0.04901541228809553
ag131
aF0.03660676428136973
ag132
aF0.06254738291321398
ag133
aF0.0
ag134
aF0.03527921222049342
ag135
aF0.04588890132174816
ag136
aF0.059656124245500965
ag137
aF0.041914495543007725
ag138
aF0.04582876450061292
ag139
aF0.04716026369827537
ag140
aF0.05767479593011802
ag141
aF0.048550962864342795
ag142
aF0.055439146843195945
ag143
aF0.03029735592509366
ag144
aF0.0
ag145
aF0.043866400393595406
ag146
aF0.04882324887993025
ag147
aF0.05860254506373071
ag148
aF0.030360565755362105
ag149
aF0.03513791011408037
ag150
aF0.05136886223281736
ag151
aF0.05758791046706735
ag152
aF0.05610780685844425
ag153
aF0.04445659785454806
ag154
aF0.046818917755852424
ag155
aF0.0
ag156
aF0.05978526184263539
ag157
aF0.06902618245451493
ag158
aF0.045515704800538646
ag159
aF0.05919218706233027
ag160
aF0.06452416570244562
ag161
aF0.05730398124562359
ag162
aF0.059536862036102825
ag163
aF0.052977558134395246
ag164
aF0.0403234564685884
ag165
aF0.05714884973037889
ag166
aF0.0
ag167
aF0.0
ag59
aF0.0017554656466649953
ag61
aF0.018219338198907132
ag63
aF0.009428935093595346
ag65
aF0.007737531508057553
ag67
aF0.014535916794144002
ag69
aF0.026501788212524077
ag71
aF0.011502867151110971
ag73
aF0.011340016612287718
ag75
aF0.005435081232400799
ag77
aF0.003772543064362783
ag78
aF0.0
ag79
aF0.01848155136105
ag80
aF0.016443817165825735
ag81
aF0.011030578904521238
ag82
aF0.006129078324932156
ag83
aF0.010744526025431436
ag84
aF0.013960790373574708
ag85
aF0.015189486283387971
ag86
aF0.01145315450796409
ag87
aF0.02013425743340636
ag88
aF0.021604222970828948
ag89
aF0.0
ag90
aF0.03710952126521572
ag91
aF0.00309709505716609
ag92
aF-0.0005785061186427288
ag93
aF0.014631289361378965
ag94
aF0.004206238201417508
ag95
aF0.010784490672213747
ag96
aF0.007116203422316539
ag97
aF0.012248527806959281
ag98
aF0.00884071734650912
ag99
aF0.028905067856444637
ag100
aF0.0
ag101
aF0.008804927583407873
ag102
aF0.0069583878161325885
ag103
aF0.003930762506660338
ag104
aF0.019714237355285855
ag105
aF0.00802252329479625
ag106
aF0.017166435506045716
ag107
aF0.00786922963243989
ag108
aF0.011985698501431519
ag109
aF0.003085983284288101
ag110
aF-0.0006433189569497827
ag111
aF0.0
ag112
aF-0.004964814645747979
ag113
aF0.017440325753595724
ag114
aF-0.0026171032325232064
ag115
aF-0.0005714668675801343
ag116
aF0.0031163001083897393
ag117
aF0.0056007337211527045
ag118
aF0.0022654641794249103
ag119
aF-0.0014721216996860238
ag120
aF0.007105455733521303
ag121
aF-0.010247627788860762
ag122
aF0.0
ag123
aF0.015561408535220611
ag124
aF0.02183343565824107
ag125
aF-0.0063639696854781306
ag126
aF0.00355619524434436
ag127
aF0.018575152161095333
ag128
aF0.007843678098144607
ag129
aF0.015101193027185489
ag130
aF0.0018713419796519471
ag131
aF0.01885333443902191
ag132
aF0.020203888830928683
ag133
aF0.0
ag134
aF0.019683691175823928
ag135
aF0.005497255330704444
ag136
aF0.012947619148378843
ag137
aF0.007629230684020228
ag138
aF0.02039558101283012
ag139
aF0.0011453753200204397
ag140
aF0.019982685593867486
ag141
aF0.0063891494876638765
ag142
aF0.023624424633132187
ag143
aF0.023997565089171002
ag144
aF0.0
ag145
aF0.019919080157893152
ag146
aF0.01801754748918713
ag147
aF0.011006064162359382
ag148
aF0.01770725587427205
ag149
aF0.01093054502533946
ag150
aF0.012353262864794327
ag151
aF0.001303683893197534
ag152
aF-0.006648305220304321
ag153
aF0.00761214802631313
ag154
aF0.016023045013176102
ag155
aF0.0
ag156
aF0.0201322379104167
ag157
aF0.009321085985493386
ag158
aF0.016495365768289215
ag159
aF-0.0003608012951811278
ag160
aF0.02051569670826231
ag161
aF0.0035818790025151973
ag162
aF0.007976919374929534
ag163
aF0.007979971728649185
ag164
aF0.011755621555308612
ag165
aF0.01649575921150558
ag166
aF0.0
ag167
aF0.0
ag59
aF-0.04856073109906118
ag61
aF-0.051706993660860706
ag63
aF-0.05337002748365578
ag65
aF-0.04100883461976386
ag67
aF-0.045751196263444184
ag69
aF-0.04304391690671541
ag71
aF-0.05375493579754496
ag73
aF-0.05501265242381211
ag75
aF-0.058738651959133685
ag77
aF-0.04914407050526213
ag78
aF0.0
ag79
aF-0.05184844343598306
ag80
aF-0.0530181837323988
ag81
aF-0.05053719708058726
ag82
aF-0.041781621929858896
ag83
aF-0.0476851623923071
ag84
aF-0.040246846784170606
ag85
aF-0.062489469599718836
ag86
aF-0.0565220511165156
ag87
aF-0.04755889945857326
ag88
aF-0.056472559656559354
ag89
aF0.0
ag90
aF-0.06932739973877543
ag91
aF-0.0650429355064702
ag92
aF-0.034196857825162894
ag93
aF-0.03511933592223763
ag94
aF-0.05104088552589378
ag95
aF-0.06584012992942037
ag96
aF-0.045625712811601736
ag97
aF-0.05400553759636572
ag98
aF-0.05250638949691355
ag99
aF-0.06818877709088263
ag100
aF0.0
ag101
aF-0.0654776618444894
ag102
aF-0.0727309754221831
ag103
aF-0.053911480951893034
ag104
aF-0.0630303001203979
ag105
aF-0.052049808237634054
ag106
aF-0.04563561864811893
ag107
aF-0.04019975107113902
ag108
aF-0.049094930978091894
ag109
aF-0.06429242149028705
ag110
aF-0.06222841646339813
ag111
aF0.0
ag112
aF-0.055453096788332865
ag113
aF-0.05279074323257557
ag114
aF-0.052798740695960536
ag115
aF-0.04140882166688967
ag116
aF-0.043147977453106924
ag117
aF-0.047825288711970004
ag118
aF-0.04302620390914026
ag119
aF-0.03548977030263264
ag120
aF-0.06542796633229656
ag121
aF-0.053875345945933316
ag122
aF0.0
ag123
aF-0.04772589824790509
ag124
aF-0.05961473799862231
ag125
aF-0.058592381801677744
ag126
aF-0.05758684418377207
ag127
aF-0.04415368451856816
ag128
aF-0.0532402416078963
ag129
aF-0.03603343936576248
ag130
aF-0.054680621756986354
ag131
aF-0.046247866617645524
ag132
aF-0.04291114869565671
ag133
aF0.0
ag134
aF-0.046876836430675264
ag135
aF-0.05784293624376985
ag136
aF-0.05167372450545792
ag137
aF-0.0569228621132231
ag138
aF-0.03837328637952682
ag139
aF-0.05384685991939345
ag140
aF-0.06482792336591715
ag141
aF-0.051942491223438116
ag142
aF-0.05766103655563581
ag143
aF-0.05092358102326291
ag144
aF0.0
ag145
aF-0.050263190463099475
ag146
aF-0.06062803882301721
ag147
aF-0.05345848418030368
ag148
aF-0.057642711434997634
ag149
aF-0.055318974989445775
ag150
aF-0.050040695218319727
ag151
aF-0.04356557883854863
ag152
aF-0.05797537601190774
ag153
aF-0.0610036531006459
ag154
aF-0.05073252960705831
ag155
aF0.0
ag156
aF-0.05487303674053969
ag157
aF-0.05509137613620207
ag158
aF-0.05933536069018502
ag159
aF-0.05032901504723891
ag160
aF-0.04363377949970044
ag161
aF-0.037321380374206556
ag162
aF-0.05799456405721375
ag163
aF-0.047613661161553286
ag164
aF-0.0620310582039225
ag165
aF-0.05626715202264763
ag166
aF0.0
ag167
aF0.0
ag59
aF-0.08999762668173125
ag61
aF-0.09516167964714503
ag63
aF-0.10274018434311526
ag65
aF-0.09401628664366406
ag67
aF-0.11122463430013471
ag69
aF-0.09801353774063118
ag71
aF-0.10223032724043253
ag73
aF-0.09257911532540458
ag75
aF-0.10152510748163131
ag77
aF-0.09312802432692574
ag78
aF0.0
ag79
aF-0.09803458478499186
ag80
aF-0.11426772726911803
ag81
aF-0.11708169796938654
ag82
aF-0.10017986548456409
ag83
aF-0.10134880998331211
ag84
aF-0.09617799249422654
ag85
aF-0.11597710966838155
ag86
aF-0.11085440056783107
ag87
aF-0.09951009655238369
ag88
aF-0.1024758079835765
ag89
aF0.0
ag90
aF-0.09761949374433115
ag91
aF-0.10544654101622959
ag92
aF-0.10150723922580203
ag93
aF-0.10752615232572316
ag94
aF-0.0995284316552135
ag95
aF-0.10268839152260077
ag96
aF-0.11371493882351538
ag97
aF-0.10862538197242828
ag98
aF-0.1171279662256465
ag99
aF-0.0939265637288106
ag100
aF0.0
ag101
aF-0.10987346342830248
ag102
aF-0.09535918152278686
ag103
aF-0.09433025342743233
ag104
aF-0.1103034074816971
ag105
aF-0.1085940909648278
ag106
aF-0.11420467074596709
ag107
aF-0.09792604457663592
ag108
aF-0.11669651853789113
ag109
aF-0.09716282541060585
ag110
aF-0.11470680299482416
ag111
aF0.0
ag112
aF-0.09663825331557695
ag113
aF-0.10021417296877567
ag114
aF-0.09427240467830773
ag115
aF-0.11071504905435205
ag116
aF-0.09702427401897985
ag117
aF-0.11253738715713138
ag118
aF-0.09350467208291684
ag119
aF-0.10266884765826716
ag120
aF-0.09641648573736188
ag121
aF-0.10514443036304809
ag122
aF0.0
ag123
aF-0.11255409565871621
ag124
aF-0.09493951899197164
ag125
aF-0.11042018379939748
ag126
aF-0.09735194714956266
ag127
aF-0.09699627187670833
ag128
aF-0.1034244919128667
ag129
aF-0.10041927214222109
ag130
aF-0.090522774861351
ag131
aF-0.10128763926364176
ag132
aF-0.11051284728593955
ag133
aF0.0
ag134
aF-0.0985906779108706
ag135
aF-0.11423997605963719
ag136
aF-0.1159977238779754
ag137
aF-0.10247246036430765
ag138
aF-0.09887827978108157
ag139
aF-0.09999218661575549
ag140
aF-0.1145001573620485
ag141
aF-0.10028206986781649
ag142
aF-0.0928625265241486
ag143
aF-0.1047906299647424
ag144
aF0.0
ag145
aF-0.10976540039064216
ag146
aF-0.10118102403181124
ag147
aF-0.09237377515632399
ag148
aF-0.11001325811261899
ag149
aF-0.10173969786037793
ag150
aF-0.1052627127856203
ag151
aF-0.11080478351032658
ag152
aF-0.10813518092950021
ag153
aF-0.11394021716040445
ag154
aF-0.1060723046313859
ag155
aF0.0
ag156
aF-0.09968634436429358
ag157
aF-0.10289701774247162
ag158
aF-0.10972416173377357
ag159
aF-0.11697579953364413
ag160
aF-0.11432567386315903
ag161
aF-0.10248004366595656
ag162
aF-0.09639074334822981
ag163
aF-0.11231979799121848
ag164
aF-0.09854870450339549
ag165
aF-0.09842984278465228
ag166
aF0.0
ag167
aF0.0
ag59
aF-0.08845784037295058
ag61
aF-0.10325407329514144
ag63
aF-0.09537494382604735
ag65
aF-0.09269226656132122
ag67
aF-0.10424886984027354
ag69
aF-0.10445242621336692
ag71
aF-0.09282661246892948
ag73
aF-0.11403948989405464
ag75
aF-0.10390818785410001
ag77
aF-0.09064576571908917
ag78
aF0.0
ag79
aF-0.09769283101948177
ag80
aF-0.11319592538891825
ag81
aF-0.11068712701955384
ag82
aF-0.10270376811533842
ag83
aF-0.10703209693313928
ag84
aF-0.08936174283978959
ag85
aF-0.09347118425963931
ag86
aF-0.10083703941710602
ag87
aF-0.10837535749043306
ag88
aF-0.09732769608670205
ag89
aF0.0
ag90
aF-0.09284628857555477
ag91
aF-0.09509042451128022
ag92
aF-0.09872976120034295
ag93
aF-0.1080459405004572
ag94
aF-0.10273428819443162
ag95
aF-0.09283240506553711
ag96
aF-0.10705518450294342
ag97
aF-0.09766991985005279
ag98
aF-0.11302559536763554
ag99
aF-0.09331387913218116
ag100
aF0.0
ag101
aF-0.09572121728473217
ag102
aF-0.0940375554060024
ag103
aF-0.09479200086547045
ag104
aF-0.10400618238756248
ag105
aF-0.09982617073226518
ag106
aF-0.09739174813214146
ag107
aF-0.09474376768589649
ag108
aF-0.10907167779649908
ag109
aF-0.09413702248964423
ag110
aF-0.0988756964894173
ag111
aF0.0
ag112
aF-0.0986578142008283
ag113
aF-0.10399141410469699
ag114
aF-0.10582011209474436
ag115
aF-0.08432982480779233
ag116
aF-0.1107660506613086
ag117
aF-0.10636724987029904
ag118
aF-0.10279072891118542
ag119
aF-0.09983377144975734
ag120
aF-0.09871731384174927
ag121
aF-0.10148197718924767
ag122
aF0.0
ag123
aF-0.12151719102206321
ag124
aF-0.10397093027413483
ag125
aF-0.10231422707444583
ag126
aF-0.10657485394773183
ag127
aF-0.10705269218450504
ag128
aF-0.10297028461541692
ag129
aF-0.1039183158912639
ag130
aF-0.09549042277125763
ag131
aF-0.10120444300307116
ag132
aF-0.11568655758732709
ag133
aF0.0
ag134
aF-0.10164706121079402
ag135
aF-0.09709841944420686
ag136
aF-0.09349043617891949
ag137
aF-0.09367047762407472
ag138
aF-0.09051227122309159
ag139
aF-0.10662879435056997
ag140
aF-0.10696879574878694
ag141
aF-0.10468884094884903
ag142
aF-0.10018353585218827
ag143
aF-0.10084928400389206
ag144
aF0.0
ag145
aF-0.10745227918075537
ag146
aF-0.08031670185170894
ag147
aF-0.11341190243978162
ag148
aF-0.09579891410100388
ag149
aF-0.10120552205790993
ag150
aF-0.09890405688063658
ag151
aF-0.0869060045192411
ag152
aF-0.09924919140298837
ag153
aF-0.10248677154950275
ag154
aF-0.11176609826699539
ag155
aF0.0
ag156
aF-0.11029101517994688
ag157
aF-0.11156410831847173
ag158
aF-0.10108708855301696
ag159
aF-0.10810707426448682
ag160
aF-0.09928514398597593
ag161
aF-0.10635073516223524
ag162
aF-0.10839420137662671
ag163
aF-0.096720752087735
ag164
aF-0.09141248765494778
ag165
aF-0.1050644393420445
ag166
aF0.0
ag167
aF0.0
ag59
aF-0.08099829197915367
ag61
aF-0.08756329601796839
ag63
aF-0.08379510233183697
ag65
aF-0.10022114076411164
ag67
aF-0.10070677112818174
ag69
aF-0.08189311051897952
ag71
aF-0.0796433365320866
ag73
aF-0.09780707254407864
ag75
aF-0.09704579713613642
ag77
aF-0.08190393144176582
ag78
aF0.0
ag79
aF-0.08238951535438938
ag80
aF-0.07606450234740048
ag81
aF-0.08749892427324174
ag82
aF-0.09128631537863752
ag83
aF-0.07978433782145884
ag84
aF-0.08184463733961236
ag85
aF-0.08325943166686735
ag86
aF-0.08243128956012201
ag87
aF-0.08808237196855617
ag88
aF-0.08409561134944177
ag89
aF0.0
ag90
aF-0.09948479431537999
ag91
aF-0.07943971985469919
ag92
aF-0.07886610262026983
ag93
aF-0.08783253866222009
ag94
aF-0.08987812519121449
ag95
aF-0.07114906340747665
ag96
aF-0.08453577234550808
ag97
aF-0.08583062497401449
ag98
aF-0.08178648794264058
ag99
aF-0.10058422288845159
ag100
aF0.0
ag101
aF-0.08778288437669046
ag102
aF-0.08873411344280789
ag103
aF-0.07919848308796681
ag104
aF-0.07951317137207607
ag105
aF-0.08008358106066549
ag106
aF-0.08045421449442462
ag107
aF-0.09487021948441045
ag108
aF-0.07904394517363703
ag109
aF-0.08345556516944606
ag110
aF-0.09447184079384346
ag111
aF0.0
ag112
aF-0.08692667624892196
ag113
aF-0.09032038502778973
ag114
aF-0.07359213354224015
ag115
aF-0.09162825475353933
ag116
aF-0.09001967399278842
ag117
aF-0.09769851495045827
ag118
aF-0.09228899061613036
ag119
aF-0.08294059930374018
ag120
aF-0.08816201144680355
ag121
aF-0.09094701398088575
ag122
aF0.0
ag123
aF-0.08605177975467235
ag124
aF-0.09349911134833501
ag125
aF-0.09215547605543861
ag126
aF-0.09298578939928584
ag127
aF-0.08675232570663927
ag128
aF-0.08145525037865983
ag129
aF-0.08910384567655334
ag130
aF-0.08347155826911828
ag131
aF-0.08485563790733065
ag132
aF-0.08958782558993807
ag133
aF0.0
ag134
aF-0.08100135608792763
ag135
aF-0.09069193904036418
ag136
aF-0.07912309616401833
ag137
aF-0.07767788996456707
ag138
aF-0.08709105377733077
ag139
aF-0.09179704734409735
ag140
aF-0.08739469584855446
ag141
aF-0.07049919885187268
ag142
aF-0.09061933265375915
ag143
aF-0.07771663120004754
ag144
aF0.0
ag145
aF-0.07296271007481317
ag146
aF-0.08534679151826711
ag147
aF-0.1008067935231417
ag148
aF-0.07923836897372094
ag149
aF-0.07548469043857299
ag150
aF-0.08513360701033888
ag151
aF-0.08697293325448144
ag152
aF-0.09519531511295916
ag153
aF-0.0899908500550186
ag154
aF-0.06804012284549155
ag155
aF0.0
ag156
aF-0.08645321186991846
ag157
aF-0.09823796451431888
ag158
aF-0.08699340567769447
ag159
aF-0.08790616138465158
ag160
aF-0.08312386882833905
ag161
aF-0.0906134142593139
ag162
aF-0.0896674333387501
ag163
aF-0.06667292130501094
ag164
aF-0.0857477940474398
ag165
aF-0.08880473910803473
ag166
aF0.0
ag167
aF0.0
ag59
aF-0.03854900779721993
ag61
aF-0.050766352001058446
ag63
aF-0.043521217690289285
ag65
aF-0.059406333266201636
ag67
aF-0.05632743445377179
ag69
aF-0.050704772335431046
ag71
aF-0.06116170807952311
ag73
aF-0.043146838344886994
ag75
aF-0.05101752024778784
ag77
aF-0.04295584745234848
ag78
aF0.0
ag79
aF-0.05427043084491435
ag80
aF-0.06295907965717992
ag81
aF-0.056564497636461174
ag82
aF-0.05696307811231509
ag83
aF-0.059467197519854936
ag84
aF-0.06341030364311677
ag85
aF-0.049332804926256114
ag86
aF-0.04762481076615555
ag87
aF-0.04892500523050543
ag88
aF-0.04801974755242411
ag89
aF0.0
ag90
aF-0.055920031151112576
ag91
aF-0.04461551168920249
ag92
aF-0.0542684490514799
ag93
aF-0.062153652891444255
ag94
aF-0.04982605479932408
ag95
aF-0.06239890144958319
ag96
aF-0.04180218920876827
ag97
aF-0.05116276632331801
ag98
aF-0.06224720972282625
ag99
aF-0.057122881570904734
ag100
aF0.0
ag101
aF-0.0707474009940116
ag102
aF-0.052447825345276165
ag103
aF-0.05702510546820906
ag104
aF-0.05046831883686046
ag105
aF-0.05387971709430159
ag106
aF-0.06930274007621907
ag107
aF-0.05792917408629555
ag108
aF-0.05894916595670504
ag109
aF-0.04444256318285737
ag110
aF-0.07264870989259553
ag111
aF0.0
ag112
aF-0.055824289110510926
ag113
aF-0.057491439526782255
ag114
aF-0.05968243088199062
ag115
aF-0.05462832069382168
ag116
aF-0.06310945698522319
ag117
aF-0.052617732658793374
ag118
aF-0.06063666862422691
ag119
aF-0.05747362588353621
ag120
aF-0.05922807568677601
ag121
aF-0.055974911020512136
ag122
aF0.0
ag123
aF-0.07401249361225747
ag124
aF-0.04630798950450236
ag125
aF-0.05368938306138023
ag126
aF-0.05097113805706847
ag127
aF-0.050048605415483505
ag128
aF-0.0651037000689433
ag129
aF-0.057126381762193666
ag130
aF-0.0557104217842609
ag131
aF-0.053200251559729544
ag132
aF-0.06541311534272774
ag133
aF0.0
ag134
aF-0.05949382678603074
ag135
aF-0.044251734138373626
ag136
aF-0.05474015224553433
ag137
aF-0.06111552518922365
ag138
aF-0.05850212205014665
ag139
aF-0.05248963391755825
ag140
aF-0.058476641744066464
ag141
aF-0.05450795936655783
ag142
aF-0.04979895666886893
ag143
aF-0.060482612614507825
ag144
aF0.0
ag145
aF-0.05323258793216683
ag146
aF-0.06123602018703923
ag147
aF-0.04575662314994102
ag148
aF-0.04872524293487226
ag149
aF-0.07055363411538258
ag150
aF-0.059809294692197215
ag151
aF-0.04487766891943113
ag152
aF-0.05070074242902256
ag153
aF-0.047439396516385915
ag154
aF-0.055578111180953946
ag155
aF0.0
ag156
aF-0.054663594300164646
ag157
aF-0.055222589339439035
ag158
aF-0.0458286945345462
ag159
aF-0.04112837937182382
ag160
aF-0.061491161194049626
ag161
aF-0.06169547504094315
ag162
aF-0.05008680924019835
ag163
aF-0.05638963680304168
ag164
aF-0.05788833353537555
ag165
aF-0.056754767012387505
ag166
aF0.0
ag167
atp215
ba(lp216
g10
(g11
(I0
tp217
g13
tp218
Rp219
((I1
(I17
tp220
g20
I00
S'\x00\x00\x00\x00\x00\x00\x00\x00\x01\x00\x00\x00\x00\x00\x00\x00\x02\x00\x00\x00\x00\x00\x00\x00\x03\x00\x00\x00\x00\x00\x00\x00\x04\x00\x00\x00\x00\x00\x00\x00\x05\x00\x00\x00\x00\x00\x00\x00\x06\x00\x00\x00\x00\x00\x00\x00\x07\x00\x00\x00\x00\x00\x00\x00\x08\x00\x00\x00\x00\x00\x00\x00\t\x00\x00\x00\x00\x00\x00\x00\n\x00\x00\x00\x00\x00\x00\x00\x0b\x00\x00\x00\x00\x00\x00\x00\x0c\x00\x00\x00\x00\x00\x00\x00\r\x00\x00\x00\x00\x00\x00\x00\x0e\x00\x00\x00\x00\x00\x00\x00\x0f\x00\x00\x00\x00\x00\x00\x00\x10\x00\x00\x00\x00\x00\x00\x00'
p221
tp222
(Ntp223
tp224
batp225
bbag1
(g2
g3
Ntp226
Rp227
g1
(g6
g3
Ntp228
Rp229
((lp230
g10
(g11
(I0
tp231
g13
tp232
Rp233
((I1
(I17
tp234
g20
I00
S'\x00\x00\x00\x00\x00\x00\x00\x00\x01\x00\x00\x00\x00\x00\x00\x00\x02\x00\x00\x00\x00\x00\x00\x00\x03\x00\x00\x00\x00\x00\x00\x00\x04\x00\x00\x00\x00\x00\x00\x00\x05\x00\x00\x00\x00\x00\x00\x00\x06\x00\x00\x00\x00\x00\x00\x00\x07\x00\x00\x00\x00\x00\x00\x00\x08\x00\x00\x00\x00\x00\x00\x00\t\x00\x00\x00\x00\x00\x00\x00\n\x00\x00\x00\x00\x00\x00\x00\x0b\x00\x00\x00\x00\x00\x00\x00\x0c\x00\x00\x00\x00\x00\x00\x00\r\x00\x00\x00\x00\x00\x00\x00\x0e\x00\x00\x00\x00\x00\x00\x00\x0f\x00\x00\x00\x00\x00\x00\x00\x10\x00\x00\x00\x00\x00\x00\x00'
p235
tp236
(Ntp237
tp238
bag10
(g11
(I0
tp239
g13
tp240
Rp241
((I1
(I100
tp242
g20
I00
S'\x00\x00\x00\x00\x00\x00\x00\x00\x01\x00\x00\x00\x00\x00\x00\x00\x02\x00\x00\x00\x00\x00\x00\x00\x03\x00\x00\x00\x00\x00\x00\x00\x04\x00\x00\x00\x00\x00\x00\x00\x05\x00\x00\x00\x00\x00\x00\x00\x06\x00\x00\x00\x00\x00\x00\x00\x07\x00\x00\x00\x00\x00\x00\x00\x08\x00\x00\x00\x00\x00\x00\x00\t\x00\x00\x00\x00\x00\x00\x00\n\x00\x00\x00\x00\x00\x00\x00\x0b\x00\x00\x00\x00\x00\x00\x00\x0c\x00\x00\x00\x00\x00\x00\x00\r\x00\x00\x00\x00\x00\x00\x00\x0e\x00\x00\x00\x00\x00\x00\x00\x0f\x00\x00\x00\x00\x00\x00\x00\x10\x00\x00\x00\x00\x00\x00\x00\x11\x00\x00\x00\x00\x00\x00\x00\x12\x00\x00\x00\x00\x00\x00\x00\x13\x00\x00\x00\x00\x00\x00\x00\x14\x00\x00\x00\x00\x00\x00\x00\x15\x00\x00\x00\x00\x00\x00\x00\x16\x00\x00\x00\x00\x00\x00\x00\x17\x00\x00\x00\x00\x00\x00\x00\x18\x00\x00\x00\x00\x00\x00\x00\x19\x00\x00\x00\x00\x00\x00\x00\x1a\x00\x00\x00\x00\x00\x00\x00\x1b\x00\x00\x00\x00\x00\x00\x00\x1c\x00\x00\x00\x00\x00\x00\x00\x1d\x00\x00\x00\x00\x00\x00\x00\x1e\x00\x00\x00\x00\x00\x00\x00\x1f\x00\x00\x00\x00\x00\x00\x00 \x00\x00\x00\x00\x00\x00\x00!\x00\x00\x00\x00\x00\x00\x00"\x00\x00\x00\x00\x00\x00\x00#\x00\x00\x00\x00\x00\x00\x00$\x00\x00\x00\x00\x00\x00\x00%\x00\x00\x00\x00\x00\x00\x00&\x00\x00\x00\x00\x00\x00\x00\'\x00\x00\x00\x00\x00\x00\x00(\x00\x00\x00\x00\x00\x00\x00)\x00\x00\x00\x00\x00\x00\x00*\x00\x00\x00\x00\x00\x00\x00+\x00\x00\x00\x00\x00\x00\x00,\x00\x00\x00\x00\x00\x00\x00-\x00\x00\x00\x00\x00\x00\x00.\x00\x00\x00\x00\x00\x00\x00/\x00\x00\x00\x00\x00\x00\x000\x00\x00\x00\x00\x00\x00\x001\x00\x00\x00\x00\x00\x00\x002\x00\x00\x00\x00\x00\x00\x003\x00\x00\x00\x00\x00\x00\x004\x00\x00\x00\x00\x00\x00\x005\x00\x00\x00\x00\x00\x00\x006\x00\x00\x00\x00\x00\x00\x007\x00\x00\x00\x00\x00\x00\x008\x00\x00\x00\x00\x00\x00\x009\x00\x00\x00\x00\x00\x00\x00:\x00\x00\x00\x00\x00\x00\x00;\x00\x00\x00\x00\x00\x00\x00<\x00\x00\x00\x00\x00\x00\x00=\x00\x00\x00\x00\x00\x00\x00>\x00\x00\x00\x00\x00\x00\x00?\x00\x00\x00\x00\x00\x00\x00@\x00\x00\x00\x00\x00\x00\x00A\x00\x00\x00\x00\x00\x00\x00B\x00\x00\x00\x00\x00\x00\x00C\x00\x00\x00\x00\x00\x00\x00D\x00\x00\x00\x00\x00\x00\x00E\x00\x00\x00\x00\x00\x00\x00F\x00\x00\x00\x00\x00\x00\x00G\x00\x00\x00\x00\x00\x00\x00H\x00\x00\x00\x00\x00\x00\x00I\x00\x00\x00\x00\x00\x00\x00J\x00\x00\x00\x00\x00\x00\x00K\x00\x00\x00\x00\x00\x00\x00L\x00\x00\x00\x00\x00\x00\x00M\x00\x00\x00\x00\x00\x00\x00N\x00\x00\x00\x00\x00\x00\x00O\x00\x00\x00\x00\x00\x00\x00P\x00\x00\x00\x00\x00\x00\x00Q\x00\x00\x00\x00\x00\x00\x00R\x00\x00\x00\x00\x00\x00\x00S\x00\x00\x00\x00\x00\x00\x00T\x00\x00\x00\x00\x00\x00\x00U\x00\x00\x00\x00\x00\x00\x00V\x00\x00\x00\x00\x00\x00\x00W\x00\x00\x00\x00\x00\x00\x00X\x00\x00\x00\x00\x00\x00\x00Y\x00\x00\x00\x00\x00\x00\x00Z\x00\x00\x00\x00\x00\x00\x00[\x00\x00\x00\x00\x00\x00\x00\\\x00\x00\x00\x00\x00\x00\x00]\x00\x00\x00\x00\x00\x00\x00^\x00\x00\x00\x00\x00\x00\x00_\x00\x00\x00\x00\x00\x00\x00`\x00\x00\x00\x00\x00\x00\x00a\x00\x00\x00\x00\x00\x00\x00b\x00\x00\x00\x00\x00\x00\x00c\x00\x00\x00\x00\x00\x00\x00'
p243
tp244
(Ntp245
tp246
bag10
(g35
(I0
tp247
g13
tp248
Rp249
((I1
(I2
tp250
g42
I00
(lp251
S'p-sd'
p252
ag47
atp253
(Ntp254
tp255
ba(lp256
g10
(g52
(I0
tp257
g13
tp258
Rp259
(I1
(I17
I100
I2
tp260
g42
I00
(lp261
F0.0
ag59
aF0.06714827369918332
ag61
aF0.0718270713829407
ag63
aF0.07306399689828354
ag65
aF0.07557255743584951
ag67
aF0.07234995359109785
ag69
aF0.07232188018761337
ag71
aF0.07510421565403552
ag73
aF0.07136774286219852
ag75
aF0.06919413506478307
ag77
aF0.06385307101338046
ag78
aF0.0
ag79
aF0.06988147194499283
ag80
aF0.06954612116069527
ag81
aF0.07477451923353483
ag82
aF0.07420298053251544
ag83
aF0.07234893117017888
ag84
aF0.07151269454626005
ag85
aF0.07516395989259052
ag86
aF0.07059369679756
ag87
aF0.0696620791905616
ag88
aF0.07429200577967245
ag89
aF0.0
ag90
aF0.07049621318355735
ag91
aF0.06826768818464359
ag92
aF0.07435774992016407
ag93
aF0.07706659704840628
ag94
aF0.07230690760660273
ag95
aF0.0738986857806426
ag96
aF0.07125669677434027
ag97
aF0.07019029830064509
ag98
aF0.07229099703466206
ag99
aF0.07319260179982319
ag100
aF0.0
ag101
aF0.07366126106520345
ag102
aF0.07006173133558563
ag103
aF0.07239068187290282
ag104
aF0.07409891222783964
ag105
aF0.07224371454991858
ag106
aF0.07251938608917685
ag107
aF0.07390115729220255
ag108
aF0.07790382047875694
ag109
aF0.07219250081166799
ag110
aF0.07572993960446234
ag111
aF0.0
ag112
aF0.0698196901660289
ag113
aF0.06903689095740184
ag114
aF0.07785591144357526
ag115
aF0.06678076121950931
ag116
aF0.07796115233862917
ag117
aF0.07384103358772919
ag118
aF0.07368545188181179
ag119
aF0.07207806769965341
ag120
aF0.06864195133774371
ag121
aF0.06765113561578057
ag122
aF0.0
ag123
aF0.07556815707057157
ag124
aF0.07275284564959164
ag125
aF0.07260975181378594
ag126
aF0.07377885775620525
ag127
aF0.07341546676756099
ag128
aF0.07170111712686295
ag129
aF0.07523598085473315
ag130
aF0.07227153269688931
ag131
aF0.06773539152220664
ag132
aF0.07577304527352949
ag133
aF0.0
ag134
aF0.07883373948238448
ag135
aF0.06855381210984914
ag136
aF0.06984027312274335
ag137
aF0.07795178359536106
ag138
aF0.07401995598537785
ag139
aF0.06965331500799077
ag140
aF0.06541155122634318
ag141
aF0.07946170614552693
ag142
aF0.06822318557665058
ag143
aF0.07315314665700708
ag144
aF0.0
ag145
aF0.06926331227189116
ag146
aF0.07104875151454097
ag147
aF0.0734950662152803
ag148
aF0.07810968571730181
ag149
aF0.06543415581600935
ag150
aF0.07224995375206668
ag151
aF0.06509850819955892
ag152
aF0.06992691531374616
ag153
aF0.07327359316071741
ag154
aF0.0681979947577621
ag155
aF0.0
ag156
aF0.07012509088523286
ag157
aF0.0628747984474662
ag158
aF0.07038387362716303
ag159
aF0.06612509938816019
ag160
aF0.0643358727003952
ag161
aF0.0710574111774538
ag162
aF0.07345421122737204
ag163
aF0.07086826861095352
ag164
aF0.07491255240001174
ag165
aF0.06655319079339557
ag166
aF0.0
ag167
aF0.0
ag59
aF0.07072421680942281
ag61
aF0.07018027267724479
ag63
aF0.07035532876179998
ag65
aF0.07535570750295545
ag67
aF0.07294557866370135
ag69
aF0.06611367058672883
ag71
aF0.07307273157321803
ag73
aF0.0691096710671328
ag75
aF0.07078860471387069
ag77
aF0.07227589389930436
ag78
aF0.0
ag79
aF0.07175277273206783
ag80
aF0.06918067680114763
ag81
aF0.0768788631153998
ag82
aF0.06249632142824205
ag83
aF0.06514235264243749
ag84
aF0.06929845015859085
ag85
aF0.06928810155092287
ag86
aF0.07349749142008026
ag87
aF0.07422909659555292
ag88
aF0.07170571414192319
ag89
aF0.0
ag90
aF0.07358247372925826
ag91
aF0.07475710603507535
ag92
aF0.07103942549808709
ag93
aF0.07644126734162
ag94
aF0.07544577607411078
ag95
aF0.07596208661040502
ag96
aF0.07626946323613926
ag97
aF0.07206598963912217
ag98
aF0.06964241385685012
ag99
aF0.07310404652508526
ag100
aF0.0
ag101
aF0.0719140800516803
ag102
aF0.07149777797447388
ag103
aF0.07312986166571366
ag104
aF0.06614052662227983
ag105
aF0.0748690526122158
ag106
aF0.07132337001261735
ag107
aF0.0713779532525593
ag108
aF0.07392184258608737
ag109
aF0.07209709311162878
ag110
aF0.07301364477410166
ag111
aF0.0
ag112
aF0.061931188102238466
ag113
aF0.07155765274879256
ag114
aF0.06826902219656006
ag115
aF0.07226585026131928
ag116
aF0.06798760401328023
ag117
aF0.07316214142498942
ag118
aF0.06845957831160782
ag119
aF0.0711030967447983
ag120
aF0.06710588181245329
ag121
aF0.0661478363200084
ag122
aF0.0
ag123
aF0.07381865872452846
ag124
aF0.07133438770565093
ag125
aF0.07118713478038732
ag126
aF0.06989762020960597
ag127
aF0.06584306124190815
ag128
aF0.06362751896863804
ag129
aF0.07491276486403212
ag130
aF0.071695566811691
ag131
aF0.07269949960284998
ag132
aF0.06891402385627175
ag133
aF0.0
ag134
aF0.07091016356975535
ag135
aF0.07518939960736616
ag136
aF0.06721805289613743
ag137
aF0.07107851284821368
ag138
aF0.07161231055446479
ag139
aF0.0751224845816937
ag140
aF0.07024762055843728
ag141
aF0.07338294898608877
ag142
aF0.06479142202726265
ag143
aF0.07077812386550757
ag144
aF0.0
ag145
aF0.07497863785215181
ag146
aF0.07187926480411222
ag147
aF0.06696042337745123
ag148
aF0.0687694150133659
ag149
aF0.06893772432973483
ag150
aF0.07165845050074464
ag151
aF0.07517139282030251
ag152
aF0.07002358420861056
ag153
aF0.06617436000888087
ag154
aF0.07081122302923812
ag155
aF0.0
ag156
aF0.07292434727094406
ag157
aF0.0750997149879022
ag158
aF0.06829190934926434
ag159
aF0.07427650503124307
ag160
aF0.06885473670837355
ag161
aF0.06832213584561651
ag162
aF0.06970507517371682
ag163
aF0.06418435202813605
ag164
aF0.07468234407927449
ag165
aF0.07388041040036585
ag166
aF0.0
ag167
aF0.0
ag59
aF0.07203539332370232
ag61
aF0.07204245513230115
ag63
aF0.07036752755272217
ag65
aF0.07094126081663966
ag67
aF0.07198534931851101
ag69
aF0.07529401314953733
ag71
aF0.07657511776100717
ag73
aF0.07340084953837057
ag75
aF0.07441597533299718
ag77
aF0.06917447404654348
ag78
aF0.0
ag79
aF0.06867346350842869
ag80
aF0.07028637151973333
ag81
aF0.06762103797846244
ag82
aF0.06697159364868406
ag83
aF0.06808445597322177
ag84
aF0.07265116228240241
ag85
aF0.07211165880366954
ag86
aF0.0732342472466873
ag87
aF0.07486454687870991
ag88
aF0.07713404054909112
ag89
aF0.0
ag90
aF0.07770456929750007
ag91
aF0.07074543395150466
ag92
aF0.07039711533272783
ag93
aF0.07284451310669411
ag94
aF0.06864747389174713
ag95
aF0.07084268421046347
ag96
aF0.06973843011570752
ag97
aF0.07130641814619673
ag98
aF0.07326448587528911
ag99
aF0.07754937529006384
ag100
aF0.0
ag101
aF0.06980553789916707
ag102
aF0.07247660271808501
ag103
aF0.0739659426234498
ag104
aF0.07205767123744626
ag105
aF0.0698653980343668
ag106
aF0.07435950244187875
ag107
aF0.07182279741928062
ag108
aF0.07728712914132045
ag109
aF0.07317623946875726
ag110
aF0.0770953082387172
ag111
aF0.0
ag112
aF0.07008173933066927
ag113
aF0.07081820554336599
ag114
aF0.07710531059839983
ag115
aF0.07148011981829029
ag116
aF0.06925349006423748
ag117
aF0.07329002595181572
ag118
aF0.07208702690043667
ag119
aF0.07119472696760783
ag120
aF0.07615531349963968
ag121
aF0.06523260950060573
ag122
aF0.0
ag123
aF0.07203163006444065
ag124
aF0.07285667416022737
ag125
aF0.06837856063575205
ag126
aF0.06983896452176137
ag127
aF0.07227982076321689
ag128
aF0.07082024213214191
ag129
aF0.07591773251657494
ag130
aF0.06545425995421356
ag131
aF0.06775919941080287
ag132
aF0.07164479110608797
ag133
aF0.0
ag134
aF0.07296459509282578
ag135
aF0.07768965453492822
ag136
aF0.07842299312833845
ag137
aF0.07729058437737696
ag138
aF0.07367680346472645
ag139
aF0.07365052186715453
ag140
aF0.07323018106059516
ag141
aF0.07256334587595586
ag142
aF0.0717990384495113
ag143
aF0.07188605132124297
ag144
aF0.0
ag145
aF0.0724404544423776
ag146
aF0.07264733800305222
ag147
aF0.0688650954394752
ag148
aF0.06982178938264476
ag149
aF0.0725638701758354
ag150
aF0.07132121491322585
ag151
aF0.06984495937007697
ag152
aF0.07100662422631723
ag153
aF0.07768488166008773
ag154
aF0.07144131396358931
ag155
aF0.0
ag156
aF0.07578515868895386
ag157
aF0.0698384803183937
ag158
aF0.07691129623087413
ag159
aF0.06608123375764484
ag160
aF0.0752547682549606
ag161
aF0.06547092885207675
ag162
aF0.07237351981412053
ag163
aF0.07568749627809503
ag164
aF0.07468107080400303
ag165
aF0.07661221216514184
ag166
aF0.0
ag167
aF0.0
ag59
aF0.07153383258674303
ag61
aF0.07389112939959928
ag63
aF0.07618567588494052
ag65
aF0.07891716211564076
ag67
aF0.07895615102965392
ag69
aF0.07345209899231152
ag71
aF0.06994104514322692
ag73
aF0.06676310473324586
ag75
aF0.07056783370285412
ag77
aF0.07286802165036804
ag78
aF0.0
ag79
aF0.0724655816547057
ag80
aF0.08125662487406211
ag81
aF0.07754284520436851
ag82
aF0.07455383593929948
ag83
aF0.07612002442961562
ag84
aF0.0728662499022392
ag85
aF0.0683900515923926
ag86
aF0.07207217779347092
ag87
aF0.06867269835573016
ag88
aF0.06772752559419051
ag89
aF0.0
ag90
aF0.07830729834996225
ag91
aF0.07364061662796699
ag92
aF0.07506412479624436
ag93
aF0.0732917632266778
ag94
aF0.078517031028284
ag95
aF0.07411724739856536
ag96
aF0.07059318425830136
ag97
aF0.07217598112346173
ag98
aF0.07433795777646145
ag99
aF0.07079455678468345
ag100
aF0.0
ag101
aF0.07433642264745959
ag102
aF0.07626850947335138
ag103
aF0.07299234052836821
ag104
aF0.0694575604768296
ag105
aF0.07409665358654813
ag106
aF0.06728193727644378
ag107
aF0.07161421387570846
ag108
aF0.06422418367227646
ag109
aF0.07144080530727481
ag110
aF0.07799862620338338
ag111
aF0.0
ag112
aF0.0767366457397561
ag113
aF0.0680168177126343
ag114
aF0.0713088881681278
ag115
aF0.06786495436227837
ag116
aF0.07079081350529813
ag117
aF0.07532562218077143
ag118
aF0.06787365372393586
ag119
aF0.07505554063250935
ag120
aF0.08017628744891953
ag121
aF0.07861464301456354
ag122
aF0.0
ag123
aF0.07247163676590496
ag124
aF0.07701409385763519
ag125
aF0.07013024316677921
ag126
aF0.07302826692832273
ag127
aF0.0717834446335412
ag128
aF0.07019970258625774
ag129
aF0.07261322141663482
ag130
aF0.07574977300324057
ag131
aF0.07448910051123343
ag132
aF0.0716717559792137
ag133
aF0.0
ag134
aF0.07232621631203984
ag135
aF0.07139659767814019
ag136
aF0.06889895338440276
ag137
aF0.06870509742619231
ag138
aF0.06903484167487527
ag139
aF0.07383713499738591
ag140
aF0.06910939050707689
ag141
aF0.07485554815573765
ag142
aF0.07789847238184029
ag143
aF0.07706019516626834
ag144
aF0.0
ag145
aF0.07424517127687945
ag146
aF0.06524626623380025
ag147
aF0.07144581497148651
ag148
aF0.06673380993161761
ag149
aF0.07957720943420493
ag150
aF0.08122751838079659
ag151
aF0.07621779962770923
ag152
aF0.07573704774884102
ag153
aF0.07439595305232546
ag154
aF0.07027810414729384
ag155
aF0.0
ag156
aF0.07130326865136283
ag157
aF0.07357307085678816
ag158
aF0.0746682035718391
ag159
aF0.07982772320408175
ag160
aF0.07143519008714155
ag161
aF0.08174124280389448
ag162
aF0.07877734217337488
ag163
aF0.0681287158395315
ag164
aF0.06745938409413411
ag165
aF0.07296606106496639
ag166
aF0.0
ag167
aF0.0
ag59
aF0.07202101516831447
ag61
aF0.06972541398701712
ag63
aF0.06835207562621085
ag65
aF0.074163751779572
ag67
aF0.06795469174795937
ag69
aF0.0715611741394299
ag71
aF0.0718529534572603
ag73
aF0.07307954957248672
ag75
aF0.0702454133744742
ag77
aF0.07126173496144395
ag78
aF0.0
ag79
aF0.07248205119209299
ag80
aF0.06961147565825417
ag81
aF0.07378327456401357
ag82
aF0.07373723241750987
ag83
aF0.08049569213804932
ag84
aF0.07816013561976701
ag85
aF0.07228077275591953
ag86
aF0.07468531592289485
ag87
aF0.06864593841979046
ag88
aF0.07737039232685737
ag89
aF0.0
ag90
aF0.06557634980052393
ag91
aF0.07162013225878738
ag92
aF0.07476037212654507
ag93
aF0.07368730843693891
ag94
aF0.07336877040464587
ag95
aF0.07507614125554951
ag96
aF0.07500834330631556
ag97
aF0.06584393677319147
ag98
aF0.07425921629769781
ag99
aF0.07322691480303758
ag100
aF0.0
ag101
aF0.06849360147248794
ag102
aF0.07144691353460152
ag103
aF0.07407078677877041
ag104
aF0.06661722352739291
ag105
aF0.07233953971575108
ag106
aF0.07494512682346664
ag107
aF0.0652194377317902
ag108
aF0.07836850096099564
ag109
aF0.07172702133653647
ag110
aF0.06749564712066608
ag111
aF0.0
ag112
aF0.07110073314330215
ag113
aF0.07850575124088291
ag114
aF0.0679588398371735
ag115
aF0.07738950076240601
ag116
aF0.07048487342190103
ag117
aF0.06717842525930413
ag118
aF0.07655458366480954
ag119
aF0.07434771174955054
ag120
aF0.07296455541264704
ag121
aF0.06816985660447915
ag122
aF0.0
ag123
aF0.08215325466231461
ag124
aF0.0732788794210432
ag125
aF0.07714528476590508
ag126
aF0.07507834213315606
ag127
aF0.06958389132737113
ag128
aF0.07362215542967503
ag129
aF0.0723084176281098
ag130
aF0.07105258543884255
ag131
aF0.07081532598173615
ag132
aF0.07521799154866082
ag133
aF0.0
ag134
aF0.07428046089118231
ag135
aF0.07634974982982438
ag136
aF0.07470711106578788
ag137
aF0.07211471069202575
ag138
aF0.07344314140677792
ag139
aF0.07155912728321889
ag140
aF0.06570364044693176
ag141
aF0.069963071515532
ag142
aF0.06898991510343473
ag143
aF0.074254511567863
ag144
aF0.0
ag145
aF0.07674776694631305
ag146
aF0.07348577701721365
ag147
aF0.07138815876182342
ag148
aF0.07390088884392065
ag149
aF0.06993377203842552
ag150
aF0.07306101435450742
ag151
aF0.07395714321929599
ag152
aF0.0724650504317133
ag153
aF0.07925730521096871
ag154
aF0.07282652121827256
ag155
aF0.0
ag156
aF0.07245631436375695
ag157
aF0.0683512068512827
ag158
aF0.0779762168876601
ag159
aF0.07422181055433028
ag160
aF0.07441270550962258
ag161
aF0.07007174883359747
ag162
aF0.0725382925584354
ag163
aF0.07416604239638397
ag164
aF0.07613432772739491
ag165
aF0.0772702750895083
ag166
aF0.0
ag167
aF0.0
ag59
aF0.07648092184803423
ag61
aF0.072750711039692
ag63
aF0.07193236152891162
ag65
aF0.07181866813291193
ag67
aF0.07064421914130994
ag69
aF0.06919973044707128
ag71
aF0.07636233568539519
ag73
aF0.07724349893094772
ag75
aF0.07793410965291866
ag77
aF0.07671144392810304
ag78
aF0.0
ag79
aF0.07548198925004
ag80
aF0.07864907006830829
ag81
aF0.07546578692094874
ag82
aF0.07266441921178862
ag83
aF0.07568672651292764
ag84
aF0.07440947697605518
ag85
aF0.07737710391973446
ag86
aF0.07353398551086919
ag87
aF0.0755352669717773
ag88
aF0.07375762380621459
ag89
aF0.0
ag90
aF0.07781272318362953
ag91
aF0.07665705737094206
ag92
aF0.06753018287391857
ag93
aF0.07613828474635939
ag94
aF0.074760581203665
ag95
aF0.07449970114074077
ag96
aF0.07823673223431951
ag97
aF0.07476494098981155
ag98
aF0.06927256447018444
ag99
aF0.07358311304316491
ag100
aF0.0
ag101
aF0.06737312798269827
ag102
aF0.07475453051696139
ag103
aF0.075043464108764
ag104
aF0.06769244562691916
ag105
aF0.06776002955870451
ag106
aF0.07508245119181228
ag107
aF0.07159720673300306
ag108
aF0.07503410848853749
ag109
aF0.07704436212610327
ag110
aF0.07599973150379075
ag111
aF0.0
ag112
aF0.07142804510309557
ag113
aF0.07564717044694537
ag114
aF0.07262855478361005
ag115
aF0.07679788363294614
ag116
aF0.07749806814585247
ag117
aF0.07195855895227447
ag118
aF0.07376026567171538
ag119
aF0.06956068156868905
ag120
aF0.07584522702378456
ag121
aF0.07117639969748966
ag122
aF0.0
ag123
aF0.0746358124961591
ag124
aF0.07584477706091505
ag125
aF0.07023851825283753
ag126
aF0.07994112108349935
ag127
aF0.07000117350258828
ag128
aF0.07368383127252578
ag129
aF0.07679735839712633
ag130
aF0.07302806728644207
ag131
aF0.0709499659585043
ag132
aF0.07352453900967706
ag133
aF0.0
ag134
aF0.06525907391055703
ag135
aF0.0723709678845965
ag136
aF0.07392150169750954
ag137
aF0.07121917841530544
ag138
aF0.07354033016084498
ag139
aF0.07352748937459577
ag140
aF0.06971559488899652
ag141
aF0.07614641663213931
ag142
aF0.06990876989301603
ag143
aF0.06824732004526293
ag144
aF0.0
ag145
aF0.07212248212226846
ag146
aF0.07511431814316982
ag147
aF0.07155433726352127
ag148
aF0.07569272988243754
ag149
aF0.07255771162744101
ag150
aF0.07103930515311381
ag151
aF0.07125009400268609
ag152
aF0.06669430366092842
ag153
aF0.07029608481101149
ag154
aF0.07185991049077599
ag155
aF0.0
ag156
aF0.08021836087227377
ag157
aF0.0710140974444976
ag158
aF0.07369203883567478
ag159
aF0.07277006964946357
ag160
aF0.07629021940075456
ag161
aF0.0717695093520358
ag162
aF0.07315529928183481
ag163
aF0.07474079954101286
ag164
aF0.07420043483064441
ag165
aF0.08022267688711436
ag166
aF0.0
ag167
aF0.0
ag59
aF0.07174367671613373
ag61
aF0.06496638883116462
ag63
aF0.07162715575210252
ag65
aF0.07121426194209635
ag67
aF0.0777663898256729
ag69
aF0.06919871095527566
ag71
aF0.07244369209954274
ag73
aF0.07326756309893105
ag75
aF0.069440461998858
ag77
aF0.06782781002058529
ag78
aF0.0
ag79
aF0.06947168436176661
ag80
aF0.07239795174180631
ag81
aF0.0741150702011591
ag82
aF0.07220312451982851
ag83
aF0.07630611002218632
ag84
aF0.07522252644566532
ag85
aF0.06684448984928001
ag86
aF0.07000466346339122
ag87
aF0.06539306031159614
ag88
aF0.07471086137789558
ag89
aF0.0
ag90
aF0.0723009637596842
ag91
aF0.07141416522913029
ag92
aF0.07542539624037667
ag93
aF0.06885355336966872
ag94
aF0.07401304262198688
ag95
aF0.07177242514642515
ag96
aF0.06864931005313411
ag97
aF0.07010328096624087
ag98
aF0.07285642697783047
ag99
aF0.07268119542728739
ag100
aF0.0
ag101
aF0.0740806783870009
ag102
aF0.07092097244314526
ag103
aF0.07124168208252886
ag104
aF0.0715973281305909
ag105
aF0.06971584203685019
ag106
aF0.07373760475669212
ag107
aF0.0674519308204713
ag108
aF0.07700844683454708
ag109
aF0.07024107035537808
ag110
aF0.07239713605090656
ag111
aF0.0
ag112
aF0.06983788862311495
ag113
aF0.07138898277449762
ag114
aF0.07500139323931722
ag115
aF0.06947488531858295
ag116
aF0.06753945603501522
ag117
aF0.07168253592028526
ag118
aF0.07378826430251498
ag119
aF0.07464893194852397
ag120
aF0.07271769332873068
ag121
aF0.07271766290555612
ag122
aF0.0
ag123
aF0.06969239654128316
ag124
aF0.07214425876540906
ag125
aF0.07121176161271021
ag126
aF0.07296357975174969
ag127
aF0.06938076093787972
ag128
aF0.08102218749821541
ag129
aF0.06697334126021366
ag130
aF0.07127499812516942
ag131
aF0.0678558332460474
ag132
aF0.06922503368850413
ag133
aF0.0
ag134
aF0.07760696405034254
ag135
aF0.06858270667073146
ag136
aF0.07052581522682773
ag137
aF0.06821884394259355
ag138
aF0.07506679662745905
ag139
aF0.07687793645786567
ag140
aF0.07375106523334538
ag141
aF0.07764943131370966
ag142
aF0.07488207040361437
ag143
aF0.07518104089776836
ag144
aF0.0
ag145
aF0.07267319319934074
ag146
aF0.06535361642527265
ag147
aF0.07612614050444767
ag148
aF0.0691107485735408
ag149
aF0.07572783698322504
ag150
aF0.0733392495106259
ag151
aF0.07336405984204117
ag152
aF0.07760293350845963
ag153
aF0.0688414830187031
ag154
aF0.07114777667114854
ag155
aF0.0
ag156
aF0.0745567905620912
ag157
aF0.06878083974865053
ag158
aF0.07125336023862153
ag159
aF0.07311977649667142
ag160
aF0.07635433330146911
ag161
aF0.07197332957316385
ag162
aF0.07589835031835944
ag163
aF0.06830176365114068
ag164
aF0.07249688214509797
ag165
aF0.07185185487642524
ag166
aF0.0
ag167
aF0.0
ag59
aF0.07223102670474947
ag61
aF0.07670326731697726
ag63
aF0.07753755957382125
ag65
aF0.07855997676215223
ag67
aF0.07101482302054711
ag69
aF0.0668931714615592
ag71
aF0.07687381676997349
ag73
aF0.07321038236759263
ag75
aF0.0710124089971443
ag77
aF0.0707387848086737
ag78
aF0.0
ag79
aF0.0775258510344775
ag80
aF0.06965275594500464
ag81
aF0.07787154450875249
ag82
aF0.07567291845261193
ag83
aF0.0680942058368972
ag84
aF0.07726100575888004
ag85
aF0.07222441135732306
ag86
aF0.07644122158720656
ag87
aF0.07760500970155612
ag88
aF0.07651045819661327
ag89
aF0.0
ag90
aF0.07634781415598978
ag91
aF0.07068536649537747
ag92
aF0.07867359518703883
ag93
aF0.07355488624828334
ag94
aF0.07872879978657886
ag95
aF0.07355111583724107
ag96
aF0.07212886635978187
ag97
aF0.07324513121941939
ag98
aF0.06604480722244409
ag99
aF0.07440182834366452
ag100
aF0.0
ag101
aF0.07587530810287903
ag102
aF0.0741748472715246
ag103
aF0.06920191670438917
ag104
aF0.08044510598211359
ag105
aF0.07598627310391513
ag106
aF0.07143806888506263
ag107
aF0.07415859533163704
ag108
aF0.07318822142354214
ag109
aF0.07201431541324946
ag110
aF0.0753875906645729
ag111
aF0.0
ag112
aF0.07386275417429193
ag113
aF0.06926735455188442
ag114
aF0.07971545678357657
ag115
aF0.07485590778907762
ag116
aF0.07782078054927961
ag117
aF0.07130999858274259
ag118
aF0.07325858218835606
ag119
aF0.06847917070477348
ag120
aF0.07166889095396323
ag121
aF0.07529130084373485
ag122
aF0.0
ag123
aF0.07365443315404288
ag124
aF0.07474618565336236
ag125
aF0.07248231188895705
ag126
aF0.0726136712261283
ag127
aF0.06507363420706935
ag128
aF0.07114259722675248
ag129
aF0.07592926586799569
ag130
aF0.07776168608060911
ag131
aF0.07491413323943732
ag132
aF0.07378672071220108
ag133
aF0.0
ag134
aF0.07847911928025937
ag135
aF0.07509366050231557
ag136
aF0.07191081821446704
ag137
aF0.08217440460579084
ag138
aF0.07581248641198551
ag139
aF0.07571799735021825
ag140
aF0.07607113995952192
ag141
aF0.08324646119119411
ag142
aF0.07824549613112798
ag143
aF0.07023050048433173
ag144
aF0.0
ag145
aF0.07410989693650363
ag146
aF0.06943929814416083
ag147
aF0.07405852289532627
ag148
aF0.07251645634070404
ag149
aF0.07196184227333748
ag150
aF0.0712499776266061
ag151
aF0.07843019470197803
ag152
aF0.06704615375169812
ag153
aF0.07112438234681993
ag154
aF0.0824470854660382
ag155
aF0.0
ag156
aF0.07373734918853603
ag157
aF0.07397240292584098
ag158
aF0.07375753538437088
ag159
aF0.07826896109761713
ag160
aF0.0716078306215837
ag161
aF0.08088996763874497
ag162
aF0.07279778105677152
ag163
aF0.07132940433407209
ag164
aF0.07205227843308264
ag165
aF0.07483940532991215
ag166
aF0.0
ag167
aF0.0
ag59
aF0.09151464457109613
ag61
aF0.08344607428122608
ag63
aF0.08289478827692413
ag65
aF0.08258711931413559
ag67
aF0.0847399700298401
ag69
aF0.08365406270404865
ag71
aF0.08648877689993663
ag73
aF0.08578993268762067
ag75
aF0.08335254606619714
ag77
aF0.07675412606618555
ag78
aF0.0
ag79
aF0.08646604851318809
ag80
aF0.08337468599592962
ag81
aF0.08055474273178771
ag82
aF0.07914300001085796
ag83
aF0.08097656884693387
ag84
aF0.0730885892418232
ag85
aF0.07942718015806738
ag86
aF0.07945271163562172
ag87
aF0.07600521922589684
ag88
aF0.09002078953010482
ag89
aF0.0
ag90
aF0.08426132334768194
ag91
aF0.08576543097668708
ag92
aF0.0791965270796741
ag93
aF0.08539018094113417
ag94
aF0.07951595632932548
ag95
aF0.08295382146882234
ag96
aF0.07933778164899245
ag97
aF0.07567655357307732
ag98
aF0.09097070383587405
ag99
aF0.0881643639633597
ag100
aF0.0
ag101
aF0.08753243921533076
ag102
aF0.08689272853934418
ag103
aF0.08715245488862478
ag104
aF0.07852439188808755
ag105
aF0.08131832694290309
ag106
aF0.08028674663670554
ag107
aF0.08023192385809885
ag108
aF0.08387659379219276
ag109
aF0.08940974353711136
ag110
aF0.08197257804838419
ag111
aF0.0
ag112
aF0.09563041698505986
ag113
aF0.08859759078857772
ag114
aF0.08557758266909506
ag115
aF0.07655786439349918
ag116
aF0.09147605574929213
ag117
aF0.07974425518670895
ag118
aF0.08630620855576258
ag119
aF0.08354454761344929
ag120
aF0.08363791573126762
ag121
aF0.08794270115869454
ag122
aF0.0
ag123
aF0.09173935462157896
ag124
aF0.07959366870345833
ag125
aF0.08319120828978192
ag126
aF0.08386849142487732
ag127
aF0.08232727378820871
ag128
aF0.08610231222066676
ag129
aF0.08824846297728545
ag130
aF0.08666966366305513
ag131
aF0.08448007092293387
ag132
aF0.08903624511041791
ag133
aF0.0
ag134
aF0.08374715137007975
ag135
aF0.07926560404795029
ag136
aF0.09097833801414237
ag137
aF0.08082695830765858
ag138
aF0.08374657572380341
ag139
aF0.08490319453790077
ag140
aF0.0815595462160289
ag141
aF0.08599504699513377
ag142
aF0.08032182209572186
ag143
aF0.09091575433746996
ag144
aF0.0
ag145
aF0.08622513434639656
ag146
aF0.08852367779136136
ag147
aF0.08135711601653801
ag148
aF0.08692047863334418
ag149
aF0.08523228904696707
ag150
aF0.08197303683249521
ag151
aF0.08030229678638272
ag152
aF0.08891494598756074
ag153
aF0.08725113427131737
ag154
aF0.08137240466297206
ag155
aF0.0
ag156
aF0.08339856952579612
ag157
aF0.08160798551077994
ag158
aF0.09143186763643521
ag159
aF0.08852333952452951
ag160
aF0.08760546006692799
ag161
aF0.09105426662073318
ag162
aF0.08870341356162967
ag163
aF0.08463812941081185
ag164
aF0.09256889776749441
ag165
aF0.08134748097513105
ag166
aF0.0
ag167
aF0.0
ag59
aF0.08642560614756596
ag61
aF0.09561302692285227
ag63
aF0.09874173930175001
ag65
aF0.09350268773345986
ag67
aF0.09082802922457033
ag69
aF0.08120610447025324
ag71
aF0.09591984591767379
ag73
aF0.09809021663500476
ag75
aF0.09620894214830272
ag77
aF0.09504624459771988
ag78
aF0.0
ag79
aF0.09844730600128962
ag80
aF0.0940963623062246
ag81
aF0.09257148556775971
ag82
aF0.09511542237069612
ag83
aF0.10183839935810454
ag84
aF0.09248020608213443
ag85
aF0.09650547989510817
ag86
aF0.09690693058478626
ag87
aF0.09422476496690874
ag88
aF0.09086534904461696
ag89
aF0.0
ag90
aF0.10327760241943035
ag91
aF0.0934452696365976
ag92
aF0.09034672901466417
ag93
aF0.09675020807431292
ag94
aF0.09325099950274666
ag95
aF0.10187756496214355
ag96
aF0.10155535159905019
ag97
aF0.10528461139919137
ag98
aF0.09348607539900458
ag99
aF0.10095526447987974
ag100
aF0.0
ag101
aF0.10120081417458199
ag102
aF0.09441558502787344
ag103
aF0.09609118618125088
ag104
aF0.09110623668109158
ag105
aF0.0981755600127809
ag106
aF0.09642998099263718
ag107
aF0.09200046912165522
ag108
aF0.09000542277001375
ag109
aF0.09874359542922284
ag110
aF0.10016841836493774
ag111
aF0.0
ag112
aF0.10065752594680527
ag113
aF0.09155508263722903
ag114
aF0.09349318507404855
ag115
aF0.09194120624847588
ag116
aF0.09171862637499262
ag117
aF0.09877417778282253
ag118
aF0.09071195782408621
ag119
aF0.09433392872309745
ag120
aF0.093799580051427
ag121
aF0.10215164503490878
ag122
aF0.0
ag123
aF0.09601730916074748
ag124
aF0.09294144492419991
ag125
aF0.0926107188197524
ag126
aF0.10007710008010068
ag127
aF0.0845616508133646
ag128
aF0.08847483480547724
ag129
aF0.09535956602507113
ag130
aF0.09129911125652733
ag131
aF0.08593380976692343
ag132
aF0.09358614281758168
ag133
aF0.0
ag134
aF0.09054586504597599
ag135
aF0.09333238234814821
ag136
aF0.09280478839120147
ag137
aF0.10146181093993947
ag138
aF0.09244602223276399
ag139
aF0.09962077284818291
ag140
aF0.09130399471255611
ag141
aF0.09815665676005003
ag142
aF0.09307660599063712
ag143
aF0.09469004138320218
ag144
aF0.0
ag145
aF0.09752546543442936
ag146
aF0.09798819204849893
ag147
aF0.09868113069628795
ag148
aF0.09500969105244361
ag149
aF0.10252191323945971
ag150
aF0.10225583146994471
ag151
aF0.09543156706672058
ag152
aF0.08994862298784863
ag153
aF0.10336263023809888
ag154
aF0.09379277854680988
ag155
aF0.0
ag156
aF0.09778472984165718
ag157
aF0.09422076937493255
ag158
aF0.08509121839851105
ag159
aF0.09511196734809436
ag160
aF0.09282898733266269
ag161
aF0.09528931763323183
ag162
aF0.09329666410307665
ag163
aF0.08995985069823359
ag164
aF0.08880557138188781
ag165
aF0.08650842655932489
ag166
aF0.0
ag167
aF0.0
ag59
aF0.10882557437862071
ag61
aF0.10051536225237281
ag63
aF0.09185262342468367
ag65
aF0.08994215475076696
ag67
aF0.09882309955030441
ag69
aF0.0924071906985707
ag71
aF0.09681417882617219
ag73
aF0.0950715510580456
ag75
aF0.1022605900845822
ag77
aF0.09917525045283401
ag78
aF0.0
ag79
aF0.09611030774178078
ag80
aF0.09645160366874658
ag81
aF0.09764521128981317
ag82
aF0.09090227762213106
ag83
aF0.09313072212634836
ag84
aF0.09156691772226323
ag85
aF0.0950280356423303
ag86
aF0.10175665905276694
ag87
aF0.09932839537946271
ag88
aF0.09600503052976928
ag89
aF0.0
ag90
aF0.08772632107381788
ag91
aF0.10146631337215306
ag92
aF0.09415760995540196
ag93
aF0.09455185291814024
ag94
aF0.09671461136168993
ag95
aF0.10186023035441064
ag96
aF0.10053703410893705
ag97
aF0.09544077799271117
ag98
aF0.100455004135925
ag99
aF0.09592707932792
ag100
aF0.0
ag101
aF0.099147401755499
ag102
aF0.09847389495859793
ag103
aF0.09585171777121311
ag104
aF0.09538666932677053
ag105
aF0.09778037028143417
ag106
aF0.09577434071784487
ag107
aF0.10286328723791785
ag108
aF0.11790548938551514
ag109
aF0.10570832641041165
ag110
aF0.09926217964289533
ag111
aF0.0
ag112
aF0.09395362011230848
ag113
aF0.09578060464532138
ag114
aF0.10246879347600595
ag115
aF0.10372981986621808
ag116
aF0.09444446190690127
ag117
aF0.10053067511285607
ag118
aF0.10098635077019652
ag119
aF0.09497302982535769
ag120
aF0.10105709200270292
ag121
aF0.09543440314238216
ag122
aF0.0
ag123
aF0.09129859293184343
ag124
aF0.09913590736632928
ag125
aF0.09356367460558725
ag126
aF0.10491176470993731
ag127
aF0.09961873132649612
ag128
aF0.1006083476183526
ag129
aF0.09913628726281812
ag130
aF0.09780261103499048
ag131
aF0.09738569788809578
ag132
aF0.09678062291426263
ag133
aF0.0
ag134
aF0.09410075379569602
ag135
aF0.09859295327757198
ag136
aF0.10183264906804168
ag137
aF0.0954564429653173
ag138
aF0.09207908189819508
ag139
aF0.0979525459701478
ag140
aF0.09764337589265992
ag141
aF0.0988825509869154
ag142
aF0.09474967551943912
ag143
aF0.0898110969301855
ag144
aF0.0
ag145
aF0.10296165100716777
ag146
aF0.10345776697103923
ag147
aF0.10398282008395661
ag148
aF0.10998921270692483
ag149
aF0.09967114737611879
ag150
aF0.10006932958196833
ag151
aF0.0976925092232251
ag152
aF0.09040712365986282
ag153
aF0.0970797021697653
ag154
aF0.09966030389478238
ag155
aF0.0
ag156
aF0.09747903749199817
ag157
aF0.09962959185136208
ag158
aF0.1018723807732184
ag159
aF0.09779153420926096
ag160
aF0.09468098979009813
ag161
aF0.0909787474413675
ag162
aF0.10324817569151166
ag163
aF0.09896992931918416
ag164
aF0.10140479711864665
ag165
aF0.09768904351264687
ag166
aF0.0
ag167
aF0.0
ag59
aF0.0734516082512598
ag61
aF0.08150651268347514
ag63
aF0.0761415491081461
ag65
aF0.08357987902932984
ag67
aF0.07290720927127653
ag69
aF0.07206575068214183
ag71
aF0.08356648561510094
ag73
aF0.08488910080908302
ag75
aF0.08096974857504116
ag77
aF0.07979996349578747
ag78
aF0.0
ag79
aF0.08670877113339569
ag80
aF0.0861296994966428
ag81
aF0.07903692965812066
ag82
aF0.0789976916111808
ag83
aF0.07262702851332214
ag84
aF0.08368936664996364
ag85
aF0.08096038502801378
ag86
aF0.07863538673221034
ag87
aF0.07878525074317995
ag88
aF0.08376111455201175
ag89
aF0.0
ag90
aF0.0788152766394708
ag91
aF0.08102070375504215
ag92
aF0.08011270420142139
ag93
aF0.07055973484471093
ag94
aF0.08456693375719712
ag95
aF0.08164716519259461
ag96
aF0.07112037732472004
ag97
aF0.07903452323121815
ag98
aF0.07932297900710185
ag99
aF0.07997802252286672
ag100
aF0.0
ag101
aF0.07891007934969069
ag102
aF0.08402480074435897
ag103
aF0.07198271784882454
ag104
aF0.08378102621466921
ag105
aF0.0865181576227171
ag106
aF0.08107236313121542
ag107
aF0.08404248089031434
ag108
aF0.0742546777254474
ag109
aF0.08263644870192767
ag110
aF0.08167113497271536
ag111
aF0.0
ag112
aF0.08305560199001509
ag113
aF0.07395126025554626
ag114
aF0.08196456390382502
ag115
aF0.08645690561323136
ag116
aF0.07941790030265927
ag117
aF0.07630403672240683
ag118
aF0.08367552461020626
ag119
aF0.08178193279240371
ag120
aF0.08831226874625536
ag121
aF0.08171769103421907
ag122
aF0.0
ag123
aF0.08430375031248069
ag124
aF0.0743699777150731
ag125
aF0.07726529468407856
ag126
aF0.07880637200885462
ag127
aF0.0788031217800656
ag128
aF0.07103005442947158
ag129
aF0.07054460684223897
ag130
aF0.07572006883003894
ag131
aF0.07304934459320318
ag132
aF0.0862867981907896
ag133
aF0.0
ag134
aF0.07876651621756812
ag135
aF0.08118729392043654
ag136
aF0.07949061747514088
ag137
aF0.08024543281645563
ag138
aF0.07798930703546612
ag139
aF0.08140557654003482
ag140
aF0.08319261960406961
ag141
aF0.08321942306433769
ag142
aF0.0815511357174665
ag143
aF0.07623414570998875
ag144
aF0.0
ag145
aF0.08394890262759434
ag146
aF0.08189323964723717
ag147
aF0.08053088487767898
ag148
aF0.07271534982494111
ag149
aF0.07964453889926117
ag150
aF0.08485020336133493
ag151
aF0.08621255977730542
ag152
aF0.07721537507355797
ag153
aF0.07730145608651234
ag154
aF0.07784938249813629
ag155
aF0.0
ag156
aF0.07968344574528036
ag157
aF0.07622327462576038
ag158
aF0.07211862921559092
ag159
aF0.06855660005569973
ag160
aF0.0822725620853134
ag161
aF0.08053921117182719
ag162
aF0.07894812498479553
ag163
aF0.07464443321612277
ag164
aF0.07636749067015441
ag165
aF0.07724741351075752
ag166
aF0.0
ag167
aF0.0
ag59
aF0.06715701798734147
ag61
aF0.07155647054463832
ag63
aF0.0674537428816918
ag65
aF0.06319761931442655
ag67
aF0.06599150829992746
ag69
aF0.06694846942640213
ag71
aF0.06555035523175448
ag73
aF0.07086783788701047
ag75
aF0.060965841517406555
ag77
aF0.06959268961732414
ag78
aF0.0
ag79
aF0.07169993820476579
ag80
aF0.0649112122599716
ag81
aF0.06361590087492043
ag82
aF0.06723422175360863
ag83
aF0.06746968228687443
ag84
aF0.06747005965215885
ag85
aF0.0673869635375866
ag86
aF0.06940557541093542
ag87
aF0.06419042363043481
ag88
aF0.06919054642194332
ag89
aF0.0
ag90
aF0.06623136275357396
ag91
aF0.06337511562189829
ag92
aF0.07039579389564043
ag93
aF0.0667584196443105
ag94
aF0.06821439531146753
ag95
aF0.06597756426272715
ag96
aF0.06448160932816648
ag97
aF0.06750766949550954
ag98
aF0.061907895836123335
ag99
aF0.06362013061249082
ag100
aF0.0
ag101
aF0.0595342710581596
ag102
aF0.06452518699453108
ag103
aF0.0679870060409716
ag104
aF0.0683532349500354
ag105
aF0.06098050468815509
ag106
aF0.06522672081054337
ag107
aF0.06530123623678277
ag108
aF0.06668854027716876
ag109
aF0.06664808380112153
ag110
aF0.06520087358206883
ag111
aF0.0
ag112
aF0.06247542659299058
ag113
aF0.07291760546498179
ag114
aF0.06926295431366795
ag115
aF0.06224679734745961
ag116
aF0.0668176119118083
ag117
aF0.06914914583708506
ag118
aF0.06790014004133597
ag119
aF0.06898017260567718
ag120
aF0.06379366581361465
ag121
aF0.06176986075592697
ag122
aF0.0
ag123
aF0.07136427995899343
ag124
aF0.07051659840441052
ag125
aF0.061582447865687555
ag126
aF0.065773500932958
ag127
aF0.06614660708526846
ag128
aF0.06343936548577252
ag129
aF0.059098868425737375
ag130
aF0.06681538626588693
ag131
aF0.06359874815900952
ag132
aF0.06546209673714934
ag133
aF0.0
ag134
aF0.06672002595889566
ag135
aF0.06266473742053874
ag136
aF0.06651924506820969
ag137
aF0.062386528874041516
ag138
aF0.06307890049204586
ag139
aF0.0670472719375991
ag140
aF0.07112242531879466
ag141
aF0.06570773014454234
ag142
aF0.06522205121633912
ag143
aF0.07226915779831386
ag144
aF0.0
ag145
aF0.06184989215229988
ag146
aF0.07244216989381162
ag147
aF0.06683538396654347
ag148
aF0.0625580317259071
ag149
aF0.06372606528242108
ag150
aF0.06332179688406381
ag151
aF0.06307630352678886
ag152
aF0.06096405651524003
ag153
aF0.06990461208530135
ag154
aF0.06616927133283267
ag155
aF0.0
ag156
aF0.06712883680908102
ag157
aF0.06478339540453854
ag158
aF0.06823235641727352
ag159
aF0.06572307572494063
ag160
aF0.06736448161962531
ag161
aF0.0654005235948535
ag162
aF0.06617748765293127
ag163
aF0.06915239816934399
ag164
aF0.07489263892475706
ag165
aF0.0681252612634831
ag166
aF0.0
ag167
aF0.0
ag59
aF0.06035473561199334
ag61
aF0.061016958577163154
ag63
aF0.05636672009612335
ag65
aF0.0599792009924031
ag67
aF0.056508061587333146
ag69
aF0.060769476548434315
ag71
aF0.06308213803799734
ag73
aF0.06367693424827015
ag75
aF0.06360442207356623
ag77
aF0.06331043368280258
ag78
aF0.0
ag79
aF0.056550965509714016
ag80
aF0.05995741302031278
ag81
aF0.060576693446292795
ag82
aF0.059742128828689296
ag83
aF0.05709846107662221
ag84
aF0.053841271685640436
ag85
aF0.06206894988787722
ag86
aF0.062404717970693815
ag87
aF0.06635690123822602
ag88
aF0.05775357494108448
ag89
aF0.0
ag90
aF0.05977311471045308
ag91
aF0.0597315779820177
ag92
aF0.05805692736756658
ag93
aF0.0628025528733706
ag94
aF0.06452516948289672
ag95
aF0.058323300670058836
ag96
aF0.0609280072288952
ag97
aF0.0580839618867185
ag98
aF0.06072178491404505
ag99
aF0.05643866430420903
ag100
aF0.0
ag101
aF0.062321445378927476
ag102
aF0.057865216378065736
ag103
aF0.06072897443907048
ag104
aF0.05850968517315151
ag105
aF0.06272629761427412
ag106
aF0.06103226383294125
ag107
aF0.06292155939333419
ag108
aF0.05779184097623264
ag109
aF0.05425845557749238
ag110
aF0.06408929494823726
ag111
aF0.0
ag112
aF0.059423109901605285
ag113
aF0.06351933780150726
ag114
aF0.055559023935242355
ag115
aF0.06311991289437009
ag116
aF0.06487685508410594
ag117
aF0.06056597986695059
ag118
aF0.056546428632624386
ag119
aF0.055420811779315626
ag120
aF0.0578744741573937
ag121
aF0.06509570047526962
ag122
aF0.0
ag123
aF0.0635282208801389
ag124
aF0.05749596130344503
ag125
aF0.06270866603420111
ag126
aF0.061021009542513854
ag127
aF0.06354808147409093
ag128
aF0.057512835485307626
ag129
aF0.058018591654006905
ag130
aF0.05911937927303825
ag131
aF0.06358722869972393
ag132
aF0.05783575484555089
ag133
aF0.0
ag134
aF0.05783819517888084
ag135
aF0.06461811508536879
ag136
aF0.06453775641313259
ag137
aF0.06792442598255378
ag138
aF0.05845813874625331
ag139
aF0.06216882341403422
ag140
aF0.059499713536977285
ag141
aF0.058116245176996394
ag142
aF0.05706665312124892
ag143
aF0.06301610515191672
ag144
aF0.0
ag145
aF0.0650918008783616
ag146
aF0.062222666586311086
ag147
aF0.06497637424656316
ag148
aF0.059679465943479615
ag149
aF0.052958673542748635
ag150
aF0.05750703310549933
ag151
aF0.060197353046589186
ag152
aF0.056519674614389656
ag153
aF0.05809571261557649
ag154
aF0.05768347396513764
ag155
aF0.0
ag156
aF0.05941845461788652
ag157
aF0.06502064849559618
ag158
aF0.059024552028376094
ag159
aF0.059227222739247805
ag160
aF0.0619565008548984
ag161
aF0.06431523139312467
ag162
aF0.0616662588573738
ag163
aF0.0633457551022675
ag164
aF0.05702581330202934
ag165
aF0.06017997718619773
ag166
aF0.0
ag167
aF0.0
ag59
aF0.0549705459982646
ag61
aF0.06306646754687542
ag63
aF0.05663484030424884
ag65
aF0.05766136551877473
ag67
aF0.06416423428149531
ag69
aF0.06238017269067312
ag71
aF0.05834410226152482
ag73
aF0.06302331765705499
ag75
aF0.06041465851713816
ag77
aF0.05918876721697128
ag78
aF0.0
ag79
aF0.058909575652003957
ag80
aF0.061973324283303766
ag81
aF0.055074078457040515
ag82
aF0.0546929900163907
ag83
aF0.0620159364640319
ag84
aF0.0598454023450759
ag85
aF0.05618246028918843
ag86
aF0.06132067727184979
ag87
aF0.06401991366679154
ag88
aF0.057206810579415505
ag89
aF0.0
ag90
aF0.06075657264747022
ag91
aF0.05676703864316644
ag92
aF0.05622386965495542
ag93
aF0.0596857767002993
ag94
aF0.061052256774498895
ag95
aF0.06176913425058501
ag96
aF0.05965350118027969
ag97
aF0.05879724568770536
ag98
aF0.0621884568332516
ag99
aF0.06341584764873491
ag100
aF0.0
ag101
aF0.060204631122906145
ag102
aF0.05889716508466125
ag103
aF0.06004767879038233
ag104
aF0.06276031070091383
ag105
aF0.06115040660437195
ag106
aF0.060887724044405636
ag107
aF0.059857948377142985
ag108
aF0.054042844876345086
ag109
aF0.06004285881116659
ag110
aF0.058629734200562944
ag111
aF0.0
ag112
aF0.05774649638857932
ag113
aF0.0573478346819571
ag114
aF0.06037966584060645
ag115
aF0.06382886096549692
ag116
aF0.060348449688889014
ag117
aF0.06417711273495899
ag118
aF0.058685451496395355
ag119
aF0.06213761262988438
ag120
aF0.05802685526240682
ag121
aF0.058434269894223734
ag122
aF0.0
ag123
aF0.06539190620419175
ag124
aF0.06044649113076577
ag125
aF0.05840565161127658
ag126
aF0.059118470228396065
ag127
aF0.06352362538261278
ag128
aF0.06336792526038341
ag129
aF0.0645932462895343
ag130
aF0.05919837285396043
ag131
aF0.058947689556137585
ag132
aF0.05944115849746475
ag133
aF0.0
ag134
aF0.05784668271711543
ag135
aF0.060328049737717056
ag136
aF0.05890385325359709
ag137
aF0.06021187440156052
ag138
aF0.060683129989151235
ag139
aF0.06079535988080982
ag140
aF0.06215655829629957
ag141
aF0.05848284379610986
ag142
aF0.0582935344093332
ag143
aF0.05748021169970946
ag144
aF0.0
ag145
aF0.060914278053639186
ag146
aF0.05804141684057662
ag147
aF0.06555301450781234
ag148
aF0.06277724313847502
ag149
aF0.06479498924725136
ag150
aF0.0642757377454097
ag151
aF0.06645369159637295
ag152
aF0.06009682427291085
ag153
aF0.05961974446571672
ag154
aF0.062337110130393704
ag155
aF0.0
ag156
aF0.06148125017277519
ag157
aF0.06472424942992476
ag158
aF0.0599893103253583
ag159
aF0.05949690543559689
ag160
aF0.06643699725001656
ag161
aF0.05915304726449818
ag162
aF0.057910644906815044
ag163
aF0.059289785880636756
ag164
aF0.05759541335848675
ag165
aF0.06044024070523551
ag166
aF0.0
ag167
aF0.0
ag59
aF0.06174842283189466
ag61
aF0.06393845118818138
ag63
aF0.06252981803551297
ag65
aF0.06633224035394171
ag67
aF0.059240183136227524
ag69
aF0.06088142756008538
ag71
aF0.058841525536716725
ag73
aF0.06422677165481981
ag75
aF0.0593696317584525
ag77
aF0.06392811284583196
ag78
aF0.0
ag79
aF0.06333712112465827
ag80
aF0.06230707737448794
ag81
aF0.060786638541358316
ag82
aF0.05774751369319063
ag83
aF0.06565704449400407
ag84
aF0.06097385125297008
ag85
aF0.06679779631092116
ag86
aF0.06622929016633437
ag87
aF0.06461402380083564
ag88
aF0.05788275595940302
ag89
aF0.0
ag90
aF0.0635939497577516
ag91
aF0.0629320365291974
ag92
aF0.062370705302340915
ag93
aF0.05942281825906475
ag94
aF0.05814921490214833
ag95
aF0.06230151334069314
ag96
aF0.059604821167682745
ag97
aF0.06586620785188069
ag98
aF0.06048452501137505
ag99
aF0.06877681895710912
ag100
aF0.0
ag101
aF0.06188565021712699
ag102
aF0.05816076978006544
ag103
aF0.06423229436480733
ag104
aF0.05693858992111782
ag105
aF0.06564640989848788
ag106
aF0.058122922370312725
ag107
aF0.06322767324407899
ag108
aF0.05628149805472651
ag109
aF0.06591003419008701
ag110
aF0.06582623279289236
ag111
aF0.0
ag112
aF0.06350731090024603
ag113
aF0.06017315546441846
ag114
aF0.05602573485362737
ag115
aF0.06420818877302728
ag116
aF0.06047384885350536
ag117
aF0.059222507095421206
ag118
aF0.0593606657444572
ag119
aF0.06331948479138715
ag120
aF0.0608297605812868
ag121
aF0.06717406711664911
ag122
aF0.0
ag123
aF0.06162681011978904
ag124
aF0.057579133147484786
ag125
aF0.061025233613467705
ag126
aF0.06518503245125584
ag127
aF0.06718260088778216
ag128
aF0.06172045682454995
ag129
aF0.06376144826997603
ag130
aF0.0662041548330735
ag131
aF0.05945174312828017
ag132
aF0.06233555286158002
ag133
aF0.0
ag134
aF0.06257956208339827
ag135
aF0.06302602433439508
ag136
aF0.06929328487453294
ag137
aF0.06141865866343664
ag138
aF0.06335340403225233
ag139
aF0.06263072005793115
ag140
aF0.06135721147155212
ag141
aF0.058922606020650185
ag142
aF0.05991150176224391
ag143
aF0.06301892162544238
ag144
aF0.0
ag145
aF0.06946083426806776
ag146
aF0.06050843147183262
ag147
aF0.06656493812418529
ag148
aF0.06160864128923425
ag149
aF0.06496962625396818
ag150
aF0.0663207088659018
ag151
aF0.062455045719225555
ag152
aF0.06014319570304145
ag153
aF0.06294713922062847
ag154
aF0.06581348004049282
ag155
aF0.0
ag156
aF0.06358808613479407
ag157
aF0.062151987843226696
ag158
aF0.06506067612164296
ag159
aF0.06338997897046464
ag160
aF0.0586123171137708
ag161
aF0.06314243392801551
ag162
aF0.06409528581878121
ag163
aF0.06784926369303129
ag164
aF0.06193730309837971
ag165
aF0.06282138161264812
ag166
aF0.0
ag167
aF0.0
ag59
aF0.05956390938690271
ag61
aF0.06060184376048406
ag63
aF0.06499366899858432
ag65
aF0.06552783051865455
ag67
aF0.06324149032593322
ag69
aF0.06216328039869237
ag71
aF0.06507535503306405
ag73
aF0.06627374658334087
ag75
aF0.06055214267079201
ag77
aF0.060636828847764196
ag78
aF0.0
ag79
aF0.06445610815899669
ag80
aF0.06258466877984213
ag81
aF0.06310163603757096
ag82
aF0.06283978549359567
ag83
aF0.061466718045311765
ag84
aF0.06982761550470476
ag85
aF0.06326823691565052
ag86
aF0.06227090642656811
ag87
aF0.05729819449382506
ag88
aF0.060639366617575775
ag89
aF0.0
ag90
aF0.06319009390955001
ag91
aF0.06604381334943475
ag92
aF0.06293445762356147
ag93
aF0.058863393325974775
ag94
aF0.06534913782085561
ag95
aF0.061253031816487315
ag96
aF0.061417678548551624
ag97
aF0.06305641327744202
ag98
aF0.06312922803623171
ag99
aF0.06623932384515346
ag100
aF0.0
ag101
aF0.059568649794093334
ag102
aF0.06079455654682402
ag103
aF0.06124703309637536
ag104
aF0.06111867314573273
ag105
aF0.06125646285977223
ag106
aF0.059409363222359304
ag107
aF0.05997187894064012
ag108
aF0.065836939511153
ag109
aF0.06298453666708417
ag110
aF0.06483401708685219
ag111
aF0.0
ag112
aF0.06027126894237878
ag113
aF0.059604814861181306
ag114
aF0.061327527272564214
ag115
aF0.06305737779745305
ag116
aF0.060786563329704876
ag117
aF0.059226499748729206
ag118
aF0.06118335093959356
ag119
aF0.06696439260224045
ag120
aF0.0648105107861453
ag121
aF0.06555940860329065
ag122
aF0.0
ag123
aF0.06534844595159073
ag124
aF0.06299706557589922
ag125
aF0.060968026435218856
ag126
aF0.06709363019302565
ag127
aF0.0610795782723831
ag128
aF0.06206402645928763
ag129
aF0.060811064210354177
ag130
aF0.06455761197462122
ag131
aF0.06016558352789438
ag132
aF0.059161280654095635
ag133
aF0.0
ag134
aF0.06425339829593531
ag135
aF0.06639048671181987
ag136
aF0.06266864814337901
ag137
aF0.06242018343147803
ag138
aF0.06988956343409235
ag139
aF0.06331286201858075
ag140
aF0.06962952028358219
ag141
aF0.06352345735005667
ag142
aF0.06152064309006396
ag143
aF0.06950098374247493
ag144
aF0.0
ag145
aF0.060068118536804486
ag146
aF0.06504493331537896
ag147
aF0.06618299201621318
ag148
aF0.06490148535855306
ag149
aF0.06486086375983291
ag150
aF0.061099490868029974
ag151
aF0.06631480453107305
ag152
aF0.06300633289963753
ag153
aF0.06449363523920082
ag154
aF0.06331186879013048
ag155
aF0.0
ag156
aF0.06518724129284087
ag157
aF0.05892809162096393
ag158
aF0.0628660606907635
ag159
aF0.06081848731418993
ag160
aF0.05768841588368048
ag161
aF0.0623745751182712
ag162
aF0.05896249783583295
ag163
aF0.061864341998047315
ag164
aF0.06223639200768017
ag165
aF0.06631284437586678
ag166
aF0.0
ag167
atp262
ba(lp263
g10
(g11
(I0
tp264
g13
tp265
Rp266
((I1
(I17
tp267
g20
I00
S'\x00\x00\x00\x00\x00\x00\x00\x00\x01\x00\x00\x00\x00\x00\x00\x00\x02\x00\x00\x00\x00\x00\x00\x00\x03\x00\x00\x00\x00\x00\x00\x00\x04\x00\x00\x00\x00\x00\x00\x00\x05\x00\x00\x00\x00\x00\x00\x00\x06\x00\x00\x00\x00\x00\x00\x00\x07\x00\x00\x00\x00\x00\x00\x00\x08\x00\x00\x00\x00\x00\x00\x00\t\x00\x00\x00\x00\x00\x00\x00\n\x00\x00\x00\x00\x00\x00\x00\x0b\x00\x00\x00\x00\x00\x00\x00\x0c\x00\x00\x00\x00\x00\x00\x00\r\x00\x00\x00\x00\x00\x00\x00\x0e\x00\x00\x00\x00\x00\x00\x00\x0f\x00\x00\x00\x00\x00\x00\x00\x10\x00\x00\x00\x00\x00\x00\x00'
p268
tp269
(Ntp270
tp271
batp272
bbag1
(g2
g3
Ntp273
Rp274
g1
(g6
g3
Ntp275
Rp276
((lp277
g10
(g11
(I0
tp278
g13
tp279
Rp280
((I1
(I17
tp281
g20
I00
S'\x00\x00\x00\x00\x00\x00\x00\x00\x01\x00\x00\x00\x00\x00\x00\x00\x02\x00\x00\x00\x00\x00\x00\x00\x03\x00\x00\x00\x00\x00\x00\x00\x04\x00\x00\x00\x00\x00\x00\x00\x05\x00\x00\x00\x00\x00\x00\x00\x06\x00\x00\x00\x00\x00\x00\x00\x07\x00\x00\x00\x00\x00\x00\x00\x08\x00\x00\x00\x00\x00\x00\x00\t\x00\x00\x00\x00\x00\x00\x00\n\x00\x00\x00\x00\x00\x00\x00\x0b\x00\x00\x00\x00\x00\x00\x00\x0c\x00\x00\x00\x00\x00\x00\x00\r\x00\x00\x00\x00\x00\x00\x00\x0e\x00\x00\x00\x00\x00\x00\x00\x0f\x00\x00\x00\x00\x00\x00\x00\x10\x00\x00\x00\x00\x00\x00\x00'
p282
tp283
(Ntp284
tp285
bag10
(g11
(I0
tp286
g13
tp287
Rp288
((I1
(I100
tp289
g20
I00
S'\x00\x00\x00\x00\x00\x00\x00\x00\x01\x00\x00\x00\x00\x00\x00\x00\x02\x00\x00\x00\x00\x00\x00\x00\x03\x00\x00\x00\x00\x00\x00\x00\x04\x00\x00\x00\x00\x00\x00\x00\x05\x00\x00\x00\x00\x00\x00\x00\x06\x00\x00\x00\x00\x00\x00\x00\x07\x00\x00\x00\x00\x00\x00\x00\x08\x00\x00\x00\x00\x00\x00\x00\t\x00\x00\x00\x00\x00\x00\x00\n\x00\x00\x00\x00\x00\x00\x00\x0b\x00\x00\x00\x00\x00\x00\x00\x0c\x00\x00\x00\x00\x00\x00\x00\r\x00\x00\x00\x00\x00\x00\x00\x0e\x00\x00\x00\x00\x00\x00\x00\x0f\x00\x00\x00\x00\x00\x00\x00\x10\x00\x00\x00\x00\x00\x00\x00\x11\x00\x00\x00\x00\x00\x00\x00\x12\x00\x00\x00\x00\x00\x00\x00\x13\x00\x00\x00\x00\x00\x00\x00\x14\x00\x00\x00\x00\x00\x00\x00\x15\x00\x00\x00\x00\x00\x00\x00\x16\x00\x00\x00\x00\x00\x00\x00\x17\x00\x00\x00\x00\x00\x00\x00\x18\x00\x00\x00\x00\x00\x00\x00\x19\x00\x00\x00\x00\x00\x00\x00\x1a\x00\x00\x00\x00\x00\x00\x00\x1b\x00\x00\x00\x00\x00\x00\x00\x1c\x00\x00\x00\x00\x00\x00\x00\x1d\x00\x00\x00\x00\x00\x00\x00\x1e\x00\x00\x00\x00\x00\x00\x00\x1f\x00\x00\x00\x00\x00\x00\x00 \x00\x00\x00\x00\x00\x00\x00!\x00\x00\x00\x00\x00\x00\x00"\x00\x00\x00\x00\x00\x00\x00#\x00\x00\x00\x00\x00\x00\x00$\x00\x00\x00\x00\x00\x00\x00%\x00\x00\x00\x00\x00\x00\x00&\x00\x00\x00\x00\x00\x00\x00\'\x00\x00\x00\x00\x00\x00\x00(\x00\x00\x00\x00\x00\x00\x00)\x00\x00\x00\x00\x00\x00\x00*\x00\x00\x00\x00\x00\x00\x00+\x00\x00\x00\x00\x00\x00\x00,\x00\x00\x00\x00\x00\x00\x00-\x00\x00\x00\x00\x00\x00\x00.\x00\x00\x00\x00\x00\x00\x00/\x00\x00\x00\x00\x00\x00\x000\x00\x00\x00\x00\x00\x00\x001\x00\x00\x00\x00\x00\x00\x002\x00\x00\x00\x00\x00\x00\x003\x00\x00\x00\x00\x00\x00\x004\x00\x00\x00\x00\x00\x00\x005\x00\x00\x00\x00\x00\x00\x006\x00\x00\x00\x00\x00\x00\x007\x00\x00\x00\x00\x00\x00\x008\x00\x00\x00\x00\x00\x00\x009\x00\x00\x00\x00\x00\x00\x00:\x00\x00\x00\x00\x00\x00\x00;\x00\x00\x00\x00\x00\x00\x00<\x00\x00\x00\x00\x00\x00\x00=\x00\x00\x00\x00\x00\x00\x00>\x00\x00\x00\x00\x00\x00\x00?\x00\x00\x00\x00\x00\x00\x00@\x00\x00\x00\x00\x00\x00\x00A\x00\x00\x00\x00\x00\x00\x00B\x00\x00\x00\x00\x00\x00\x00C\x00\x00\x00\x00\x00\x00\x00D\x00\x00\x00\x00\x00\x00\x00E\x00\x00\x00\x00\x00\x00\x00F\x00\x00\x00\x00\x00\x00\x00G\x00\x00\x00\x00\x00\x00\x00H\x00\x00\x00\x00\x00\x00\x00I\x00\x00\x00\x00\x00\x00\x00J\x00\x00\x00\x00\x00\x00\x00K\x00\x00\x00\x00\x00\x00\x00L\x00\x00\x00\x00\x00\x00\x00M\x00\x00\x00\x00\x00\x00\x00N\x00\x00\x00\x00\x00\x00\x00O\x00\x00\x00\x00\x00\x00\x00P\x00\x00\x00\x00\x00\x00\x00Q\x00\x00\x00\x00\x00\x00\x00R\x00\x00\x00\x00\x00\x00\x00S\x00\x00\x00\x00\x00\x00\x00T\x00\x00\x00\x00\x00\x00\x00U\x00\x00\x00\x00\x00\x00\x00V\x00\x00\x00\x00\x00\x00\x00W\x00\x00\x00\x00\x00\x00\x00X\x00\x00\x00\x00\x00\x00\x00Y\x00\x00\x00\x00\x00\x00\x00Z\x00\x00\x00\x00\x00\x00\x00[\x00\x00\x00\x00\x00\x00\x00\\\x00\x00\x00\x00\x00\x00\x00]\x00\x00\x00\x00\x00\x00\x00^\x00\x00\x00\x00\x00\x00\x00_\x00\x00\x00\x00\x00\x00\x00`\x00\x00\x00\x00\x00\x00\x00a\x00\x00\x00\x00\x00\x00\x00b\x00\x00\x00\x00\x00\x00\x00c\x00\x00\x00\x00\x00\x00\x00'
p290
tp291
(Ntp292
tp293
bag10
(g35
(I0
tp294
g13
tp295
Rp296
((I1
(I2
tp297
g42
I00
(lp298
g47
aS'stability'
p299
atp300
(Ntp301
tp302
ba(lp303
g10
(g52
(I0
tp304
g13
tp305
Rp306
(I1
(I17
I100
I2
tp307
g42
I00
(lp308
g59
aF0.0
ag61
aF0.021406547224977042
ag63
aF0.04246921417324763
ag65
aF0.03455996780899907
ag67
aF0.007479396018365473
ag69
aF0.03455996780899908
ag71
aF0.02123460708662381
ag73
aF0.016162373005203547
ag75
aF0.017881774388735838
ag77
aF0.02020296625650443
ag78
aF0.021148637017447198
ag79
aF0.0
ag80
aF0.04788532853137434
ag81
aF0.039718171959595955
ag82
aF0.00894088719436792
ag83
aF0.037568920230180596
ag84
aF0.022008337709213344
ag85
aF0.018483564872972147
ag86
aF0.01994505604897459
ag87
aF0.021148637017447198
ag88
aF0.03980414202877258
ag89
aF0.04547816659442912
ag90
aF0.0
ag91
aF0.07505187039118459
ag92
aF0.017365953973676157
ag93
aF0.07126918734741355
ag94
aF0.04264115431160086
ag95
aF0.032926536494643395
ag96
aF0.03447399773982246
ag97
aF0.041351603273951626
ag98
aF0.0329265364946434
ag99
aF0.03928832161371288
ag100
aF0.07659933163636366
ag101
aF0.0
ag102
aF0.01315342058402204
ag103
aF0.05966322800857055
ag104
aF0.03559160863911844
ag105
aF0.02991758407346189
ag106
aF0.02957370379675543
ag107
aF0.03370026711723292
ag108
aF0.00833909671013162
ag109
aF0.009800587886134067
ag110
aF0.020116996187327825
ag111
aF0.015560582520967248
ag112
aF0.0
ag113
aF0.01487282196755433
ag114
aF0.009628647747780841
ag115
aF0.008081186502601775
ag116
aF0.008425066779308234
ag117
aF0.009456707609427609
ag118
aF0.03318444670217325
ag119
aF0.03696712974594429
ag120
aF0.07169903769329661
ag121
aF0.05974919807774717
ag122
aF0.012723570238138967
ag123
aF0.0
ag124
aF0.033442356909703076
ag125
aF0.028370122828282825
ag126
aF0.02905788338169574
ag127
aF0.033872207255586165
ag128
aF0.02046087646403428
ag129
aF0.02132057715580043
ag130
aF0.04487637611019282
ag131
aF0.03576354877747169
ag132
aF0.008682976986838079
ag133
aF0.03533369843158861
ag134
aF0.0
ag135
aF0.017623864181206
ag136
aF0.019257295495561676
ag137
aF0.02063281660238751
ag138
aF0.016076402936026937
ag139
aF0.01942923563391491
ag140
aF0.036021458985001524
ag141
aF0.03137907524946434
ag142
aF0.007479396018365474
ag143
aF0.030777284765228043
ag144
aF0.01839759480379553
ag145
aF0.0
ag146
aF0.015904462797673706
ag147
aF0.01659222335108662
ag148
aF0.017881774388735838
ag149
aF0.019859085979797974
ag150
aF0.036193399123354765
ag151
aF0.031121165041934493
ag152
aF0.007393425949188858
ag153
aF0.03026146435016835
ag154
aF0.01951520570309152
ag155
aF0.015818492728497092
ag156
aF0.0
ag157
aF0.018827445149678605
ag158
aF0.02089072680991735
ag159
aF0.021406547224977042
ag160
aF0.04470443597183961
ag161
aF0.03584951884664829
ag162
aF0.008597006917661465
ag163
aF0.03507578822405876
ag164
aF0.019859085979797977
ag165
aF0.01710804376614631
ag166
aF0.017623864181206
ag167
aF0.0
ag59
aF0.0
ag61
aF0.021406547224977042
ag63
aF0.04246921417324763
ag65
aF0.03455996780899907
ag67
aF0.007479396018365473
ag69
aF0.03455996780899908
ag71
aF0.02123460708662381
ag73
aF0.016162373005203547
ag75
aF0.017881774388735838
ag77
aF0.02020296625650443
ag78
aF0.021148637017447198
ag79
aF0.0
ag80
aF0.04788532853137434
ag81
aF0.039718171959595955
ag82
aF0.00894088719436792
ag83
aF0.037568920230180596
ag84
aF0.022008337709213344
ag85
aF0.018483564872972147
ag86
aF0.01994505604897459
ag87
aF0.021148637017447198
ag88
aF0.03980414202877258
ag89
aF0.04547816659442912
ag90
aF0.0
ag91
aF0.07505187039118459
ag92
aF0.017365953973676157
ag93
aF0.07126918734741355
ag94
aF0.04264115431160086
ag95
aF0.032926536494643395
ag96
aF0.03447399773982246
ag97
aF0.041351603273951626
ag98
aF0.0329265364946434
ag99
aF0.03928832161371288
ag100
aF0.07659933163636366
ag101
aF0.0
ag102
aF0.01315342058402204
ag103
aF0.05966322800857055
ag104
aF0.03559160863911844
ag105
aF0.02991758407346189
ag106
aF0.02957370379675543
ag107
aF0.03370026711723292
ag108
aF0.00833909671013162
ag109
aF0.009800587886134067
ag110
aF0.020116996187327825
ag111
aF0.015560582520967248
ag112
aF0.0
ag113
aF0.01487282196755433
ag114
aF0.009628647747780841
ag115
aF0.008081186502601775
ag116
aF0.008425066779308234
ag117
aF0.009456707609427609
ag118
aF0.03318444670217325
ag119
aF0.03696712974594429
ag120
aF0.07169903769329661
ag121
aF0.05974919807774717
ag122
aF0.012723570238138967
ag123
aF0.0
ag124
aF0.033442356909703076
ag125
aF0.028370122828282825
ag126
aF0.02905788338169574
ag127
aF0.033872207255586165
ag128
aF0.02046087646403428
ag129
aF0.02132057715580043
ag130
aF0.04487637611019282
ag131
aF0.03576354877747169
ag132
aF0.008682976986838079
ag133
aF0.03533369843158861
ag134
aF0.0
ag135
aF0.017623864181206
ag136
aF0.019257295495561676
ag137
aF0.02063281660238751
ag138
aF0.016076402936026937
ag139
aF0.01942923563391491
ag140
aF0.036021458985001524
ag141
aF0.03137907524946434
ag142
aF0.007479396018365474
ag143
aF0.030777284765228043
ag144
aF0.01839759480379553
ag145
aF0.0
ag146
aF0.015904462797673706
ag147
aF0.01659222335108662
ag148
aF0.017881774388735838
ag149
aF0.019859085979797974
ag150
aF0.036193399123354765
ag151
aF0.031121165041934493
ag152
aF0.007393425949188858
ag153
aF0.03026146435016835
ag154
aF0.01951520570309152
ag155
aF0.015818492728497092
ag156
aF0.0
ag157
aF0.018827445149678605
ag158
aF0.02089072680991735
ag159
aF0.021406547224977042
ag160
aF0.04470443597183961
ag161
aF0.03584951884664829
ag162
aF0.008597006917661465
ag163
aF0.03507578822405876
ag164
aF0.019859085979797977
ag165
aF0.01710804376614631
ag166
aF0.017623864181206
ag167
aF0.0
ag59
aF0.0
ag61
aF0.021406547224977042
ag63
aF0.04246921417324763
ag65
aF0.03455996780899907
ag67
aF0.007479396018365473
ag69
aF0.03455996780899908
ag71
aF0.02123460708662381
ag73
aF0.016162373005203547
ag75
aF0.017881774388735838
ag77
aF0.02020296625650443
ag78
aF0.021148637017447198
ag79
aF0.0
ag80
aF0.04788532853137434
ag81
aF0.039718171959595955
ag82
aF0.00894088719436792
ag83
aF0.037568920230180596
ag84
aF0.022008337709213344
ag85
aF0.018483564872972147
ag86
aF0.01994505604897459
ag87
aF0.021148637017447198
ag88
aF0.03980414202877258
ag89
aF0.04547816659442912
ag90
aF0.0
ag91
aF0.07505187039118459
ag92
aF0.017365953973676157
ag93
aF0.07126918734741355
ag94
aF0.04264115431160086
ag95
aF0.032926536494643395
ag96
aF0.03447399773982246
ag97
aF0.041351603273951626
ag98
aF0.0329265364946434
ag99
aF0.03928832161371288
ag100
aF0.07659933163636366
ag101
aF0.0
ag102
aF0.01315342058402204
ag103
aF0.05966322800857055
ag104
aF0.03559160863911844
ag105
aF0.02991758407346189
ag106
aF0.02957370379675543
ag107
aF0.03370026711723292
ag108
aF0.00833909671013162
ag109
aF0.009800587886134067
ag110
aF0.020116996187327825
ag111
aF0.015560582520967248
ag112
aF0.0
ag113
aF0.01487282196755433
ag114
aF0.009628647747780841
ag115
aF0.008081186502601775
ag116
aF0.008425066779308234
ag117
aF0.009456707609427609
ag118
aF0.03318444670217325
ag119
aF0.03696712974594429
ag120
aF0.07169903769329661
ag121
aF0.05974919807774717
ag122
aF0.012723570238138967
ag123
aF0.0
ag124
aF0.033442356909703076
ag125
aF0.028370122828282825
ag126
aF0.02905788338169574
ag127
aF0.033872207255586165
ag128
aF0.02046087646403428
ag129
aF0.02132057715580043
ag130
aF0.04487637611019282
ag131
aF0.03576354877747169
ag132
aF0.008682976986838079
ag133
aF0.03533369843158861
ag134
aF0.0
ag135
aF0.017623864181206
ag136
aF0.019257295495561676
ag137
aF0.02063281660238751
ag138
aF0.016076402936026937
ag139
aF0.01942923563391491
ag140
aF0.036021458985001524
ag141
aF0.03137907524946434
ag142
aF0.007479396018365474
ag143
aF0.030777284765228043
ag144
aF0.01839759480379553
ag145
aF0.0
ag146
aF0.015904462797673706
ag147
aF0.01659222335108662
ag148
aF0.017881774388735838
ag149
aF0.019859085979797974
ag150
aF0.036193399123354765
ag151
aF0.031121165041934493
ag152
aF0.007393425949188858
ag153
aF0.03026146435016835
ag154
aF0.01951520570309152
ag155
aF0.015818492728497092
ag156
aF0.0
ag157
aF0.018827445149678605
ag158
aF0.02089072680991735
ag159
aF0.021406547224977042
ag160
aF0.04470443597183961
ag161
aF0.03584951884664829
ag162
aF0.008597006917661465
ag163
aF0.03507578822405876
ag164
aF0.019859085979797977
ag165
aF0.01710804376614631
ag166
aF0.017623864181206
ag167
aF0.0
ag59
aF0.0
ag61
aF0.021406547224977042
ag63
aF0.04246921417324763
ag65
aF0.03455996780899907
ag67
aF0.007479396018365473
ag69
aF0.03455996780899908
ag71
aF0.02123460708662381
ag73
aF0.016162373005203547
ag75
aF0.017881774388735838
ag77
aF0.02020296625650443
ag78
aF0.021148637017447198
ag79
aF0.0
ag80
aF0.04788532853137434
ag81
aF0.039718171959595955
ag82
aF0.00894088719436792
ag83
aF0.037568920230180596
ag84
aF0.022008337709213344
ag85
aF0.018483564872972147
ag86
aF0.01994505604897459
ag87
aF0.021148637017447198
ag88
aF0.03980414202877258
ag89
aF0.04547816659442912
ag90
aF0.0
ag91
aF0.07505187039118459
ag92
aF0.017365953973676157
ag93
aF0.07126918734741355
ag94
aF0.04264115431160086
ag95
aF0.032926536494643395
ag96
aF0.03447399773982246
ag97
aF0.041351603273951626
ag98
aF0.0329265364946434
ag99
aF0.03928832161371288
ag100
aF0.07659933163636366
ag101
aF0.0
ag102
aF0.01315342058402204
ag103
aF0.05966322800857055
ag104
aF0.03559160863911844
ag105
aF0.02991758407346189
ag106
aF0.02957370379675543
ag107
aF0.03370026711723292
ag108
aF0.00833909671013162
ag109
aF0.009800587886134067
ag110
aF0.020116996187327825
ag111
aF0.015560582520967248
ag112
aF0.0
ag113
aF0.01487282196755433
ag114
aF0.009628647747780841
ag115
aF0.008081186502601775
ag116
aF0.008425066779308234
ag117
aF0.009456707609427609
ag118
aF0.03318444670217325
ag119
aF0.03696712974594429
ag120
aF0.07169903769329661
ag121
aF0.05974919807774717
ag122
aF0.012723570238138967
ag123
aF0.0
ag124
aF0.033442356909703076
ag125
aF0.028370122828282825
ag126
aF0.02905788338169574
ag127
aF0.033872207255586165
ag128
aF0.02046087646403428
ag129
aF0.02132057715580043
ag130
aF0.04487637611019282
ag131
aF0.03576354877747169
ag132
aF0.008682976986838079
ag133
aF0.03533369843158861
ag134
aF0.0
ag135
aF0.017623864181206
ag136
aF0.019257295495561676
ag137
aF0.02063281660238751
ag138
aF0.016076402936026937
ag139
aF0.01942923563391491
ag140
aF0.036021458985001524
ag141
aF0.03137907524946434
ag142
aF0.007479396018365474
ag143
aF0.030777284765228043
ag144
aF0.01839759480379553
ag145
aF0.0
ag146
aF0.015904462797673706
ag147
aF0.01659222335108662
ag148
aF0.017881774388735838
ag149
aF0.019859085979797974
ag150
aF0.036193399123354765
ag151
aF0.031121165041934493
ag152
aF0.007393425949188858
ag153
aF0.03026146435016835
ag154
aF0.01951520570309152
ag155
aF0.015818492728497092
ag156
aF0.0
ag157
aF0.018827445149678605
ag158
aF0.02089072680991735
ag159
aF0.021406547224977042
ag160
aF0.04470443597183961
ag161
aF0.03584951884664829
ag162
aF0.008597006917661465
ag163
aF0.03507578822405876
ag164
aF0.019859085979797977
ag165
aF0.01710804376614631
ag166
aF0.017623864181206
ag167
aF0.0
ag59
aF0.0
ag61
aF0.021406547224977042
ag63
aF0.04246921417324763
ag65
aF0.03455996780899907
ag67
aF0.007479396018365473
ag69
aF0.03455996780899908
ag71
aF0.02123460708662381
ag73
aF0.016162373005203547
ag75
aF0.017881774388735838
ag77
aF0.02020296625650443
ag78
aF0.021148637017447198
ag79
aF0.0
ag80
aF0.04788532853137434
ag81
aF0.039718171959595955
ag82
aF0.00894088719436792
ag83
aF0.037568920230180596
ag84
aF0.022008337709213344
ag85
aF0.018483564872972147
ag86
aF0.01994505604897459
ag87
aF0.021148637017447198
ag88
aF0.03980414202877258
ag89
aF0.04547816659442912
ag90
aF0.0
ag91
aF0.07505187039118459
ag92
aF0.017365953973676157
ag93
aF0.07126918734741355
ag94
aF0.04264115431160086
ag95
aF0.032926536494643395
ag96
aF0.03447399773982246
ag97
aF0.041351603273951626
ag98
aF0.0329265364946434
ag99
aF0.03928832161371288
ag100
aF0.07659933163636366
ag101
aF0.0
ag102
aF0.01315342058402204
ag103
aF0.05966322800857055
ag104
aF0.03559160863911844
ag105
aF0.02991758407346189
ag106
aF0.02957370379675543
ag107
aF0.03370026711723292
ag108
aF0.00833909671013162
ag109
aF0.009800587886134067
ag110
aF0.020116996187327825
ag111
aF0.015560582520967248
ag112
aF0.0
ag113
aF0.01487282196755433
ag114
aF0.009628647747780841
ag115
aF0.008081186502601775
ag116
aF0.008425066779308234
ag117
aF0.009456707609427609
ag118
aF0.03318444670217325
ag119
aF0.03696712974594429
ag120
aF0.07169903769329661
ag121
aF0.05974919807774717
ag122
aF0.012723570238138967
ag123
aF0.0
ag124
aF0.033442356909703076
ag125
aF0.028370122828282825
ag126
aF0.02905788338169574
ag127
aF0.033872207255586165
ag128
aF0.02046087646403428
ag129
aF0.02132057715580043
ag130
aF0.04487637611019282
ag131
aF0.03576354877747169
ag132
aF0.008682976986838079
ag133
aF0.03533369843158861
ag134
aF0.0
ag135
aF0.017623864181206
ag136
aF0.019257295495561676
ag137
aF0.02063281660238751
ag138
aF0.016076402936026937
ag139
aF0.01942923563391491
ag140
aF0.036021458985001524
ag141
aF0.03137907524946434
ag142
aF0.007479396018365474
ag143
aF0.030777284765228043
ag144
aF0.01839759480379553
ag145
aF0.0
ag146
aF0.015904462797673706
ag147
aF0.01659222335108662
ag148
aF0.017881774388735838
ag149
aF0.019859085979797974
ag150
aF0.036193399123354765
ag151
aF0.031121165041934493
ag152
aF0.007393425949188858
ag153
aF0.03026146435016835
ag154
aF0.01951520570309152
ag155
aF0.015818492728497092
ag156
aF0.0
ag157
aF0.018827445149678605
ag158
aF0.02089072680991735
ag159
aF0.021406547224977042
ag160
aF0.04470443597183961
ag161
aF0.03584951884664829
ag162
aF0.008597006917661465
ag163
aF0.03507578822405876
ag164
aF0.019859085979797977
ag165
aF0.01710804376614631
ag166
aF0.017623864181206
ag167
aF0.0
ag59
aF0.0
ag61
aF0.021406547224977042
ag63
aF0.04246921417324763
ag65
aF0.03455996780899907
ag67
aF0.007479396018365473
ag69
aF0.03455996780899908
ag71
aF0.02123460708662381
ag73
aF0.016162373005203547
ag75
aF0.017881774388735838
ag77
aF0.02020296625650443
ag78
aF0.021148637017447198
ag79
aF0.0
ag80
aF0.04788532853137434
ag81
aF0.039718171959595955
ag82
aF0.00894088719436792
ag83
aF0.037568920230180596
ag84
aF0.022008337709213344
ag85
aF0.018483564872972147
ag86
aF0.01994505604897459
ag87
aF0.021148637017447198
ag88
aF0.03980414202877258
ag89
aF0.04547816659442912
ag90
aF0.0
ag91
aF0.07505187039118459
ag92
aF0.017365953973676157
ag93
aF0.07126918734741355
ag94
aF0.04264115431160086
ag95
aF0.032926536494643395
ag96
aF0.03447399773982246
ag97
aF0.041351603273951626
ag98
aF0.0329265364946434
ag99
aF0.03928832161371288
ag100
aF0.07659933163636366
ag101
aF0.0
ag102
aF0.01315342058402204
ag103
aF0.05966322800857055
ag104
aF0.03559160863911844
ag105
aF0.02991758407346189
ag106
aF0.02957370379675543
ag107
aF0.03370026711723292
ag108
aF0.00833909671013162
ag109
aF0.009800587886134067
ag110
aF0.020116996187327825
ag111
aF0.015560582520967248
ag112
aF0.0
ag113
aF0.01487282196755433
ag114
aF0.009628647747780841
ag115
aF0.008081186502601775
ag116
aF0.008425066779308234
ag117
aF0.009456707609427609
ag118
aF0.03318444670217325
ag119
aF0.03696712974594429
ag120
aF0.07169903769329661
ag121
aF0.05974919807774717
ag122
aF0.012723570238138967
ag123
aF0.0
ag124
aF0.033442356909703076
ag125
aF0.028370122828282825
ag126
aF0.02905788338169574
ag127
aF0.033872207255586165
ag128
aF0.02046087646403428
ag129
aF0.02132057715580043
ag130
aF0.04487637611019282
ag131
aF0.03576354877747169
ag132
aF0.008682976986838079
ag133
aF0.03533369843158861
ag134
aF0.0
ag135
aF0.017623864181206
ag136
aF0.019257295495561676
ag137
aF0.02063281660238751
ag138
aF0.016076402936026937
ag139
aF0.01942923563391491
ag140
aF0.036021458985001524
ag141
aF0.03137907524946434
ag142
aF0.007479396018365474
ag143
aF0.030777284765228043
ag144
aF0.01839759480379553
ag145
aF0.0
ag146
aF0.015904462797673706
ag147
aF0.01659222335108662
ag148
aF0.017881774388735838
ag149
aF0.019859085979797974
ag150
aF0.036193399123354765
ag151
aF0.031121165041934493
ag152
aF0.007393425949188858
ag153
aF0.03026146435016835
ag154
aF0.01951520570309152
ag155
aF0.015818492728497092
ag156
aF0.0
ag157
aF0.018827445149678605
ag158
aF0.02089072680991735
ag159
aF0.021406547224977042
ag160
aF0.04470443597183961
ag161
aF0.03584951884664829
ag162
aF0.008597006917661465
ag163
aF0.03507578822405876
ag164
aF0.019859085979797977
ag165
aF0.01710804376614631
ag166
aF0.017623864181206
ag167
aF0.0
ag59
aF0.0
ag61
aF0.021406547224977042
ag63
aF0.04246921417324763
ag65
aF0.03455996780899907
ag67
aF0.007479396018365473
ag69
aF0.03455996780899908
ag71
aF0.02123460708662381
ag73
aF0.016162373005203547
ag75
aF0.017881774388735838
ag77
aF0.02020296625650443
ag78
aF0.021148637017447198
ag79
aF0.0
ag80
aF0.04788532853137434
ag81
aF0.039718171959595955
ag82
aF0.00894088719436792
ag83
aF0.037568920230180596
ag84
aF0.022008337709213344
ag85
aF0.018483564872972147
ag86
aF0.01994505604897459
ag87
aF0.021148637017447198
ag88
aF0.03980414202877258
ag89
aF0.04547816659442912
ag90
aF0.0
ag91
aF0.07505187039118459
ag92
aF0.017365953973676157
ag93
aF0.07126918734741355
ag94
aF0.04264115431160086
ag95
aF0.032926536494643395
ag96
aF0.03447399773982246
ag97
aF0.041351603273951626
ag98
aF0.0329265364946434
ag99
aF0.03928832161371288
ag100
aF0.07659933163636366
ag101
aF0.0
ag102
aF0.01315342058402204
ag103
aF0.05966322800857055
ag104
aF0.03559160863911844
ag105
aF0.02991758407346189
ag106
aF0.02957370379675543
ag107
aF0.03370026711723292
ag108
aF0.00833909671013162
ag109
aF0.009800587886134067
ag110
aF0.020116996187327825
ag111
aF0.015560582520967248
ag112
aF0.0
ag113
aF0.01487282196755433
ag114
aF0.009628647747780841
ag115
aF0.008081186502601775
ag116
aF0.008425066779308234
ag117
aF0.009456707609427609
ag118
aF0.03318444670217325
ag119
aF0.03696712974594429
ag120
aF0.07169903769329661
ag121
aF0.05974919807774717
ag122
aF0.012723570238138967
ag123
aF0.0
ag124
aF0.033442356909703076
ag125
aF0.028370122828282825
ag126
aF0.02905788338169574
ag127
aF0.033872207255586165
ag128
aF0.02046087646403428
ag129
aF0.02132057715580043
ag130
aF0.04487637611019282
ag131
aF0.03576354877747169
ag132
aF0.008682976986838079
ag133
aF0.03533369843158861
ag134
aF0.0
ag135
aF0.017623864181206
ag136
aF0.019257295495561676
ag137
aF0.02063281660238751
ag138
aF0.016076402936026937
ag139
aF0.01942923563391491
ag140
aF0.036021458985001524
ag141
aF0.03137907524946434
ag142
aF0.007479396018365474
ag143
aF0.030777284765228043
ag144
aF0.01839759480379553
ag145
aF0.0
ag146
aF0.015904462797673706
ag147
aF0.01659222335108662
ag148
aF0.017881774388735838
ag149
aF0.019859085979797974
ag150
aF0.036193399123354765
ag151
aF0.031121165041934493
ag152
aF0.007393425949188858
ag153
aF0.03026146435016835
ag154
aF0.01951520570309152
ag155
aF0.015818492728497092
ag156
aF0.0
ag157
aF0.018827445149678605
ag158
aF0.02089072680991735
ag159
aF0.021406547224977042
ag160
aF0.04470443597183961
ag161
aF0.03584951884664829
ag162
aF0.008597006917661465
ag163
aF0.03507578822405876
ag164
aF0.019859085979797977
ag165
aF0.01710804376614631
ag166
aF0.017623864181206
ag167
aF0.0
ag59
aF0.0
ag61
aF0.021406547224977042
ag63
aF0.04246921417324763
ag65
aF0.03455996780899907
ag67
aF0.007479396018365473
ag69
aF0.03455996780899908
ag71
aF0.02123460708662381
ag73
aF0.016162373005203547
ag75
aF0.017881774388735838
ag77
aF0.02020296625650443
ag78
aF0.021148637017447198
ag79
aF0.0
ag80
aF0.04788532853137434
ag81
aF0.039718171959595955
ag82
aF0.00894088719436792
ag83
aF0.037568920230180596
ag84
aF0.022008337709213344
ag85
aF0.018483564872972147
ag86
aF0.01994505604897459
ag87
aF0.021148637017447198
ag88
aF0.03980414202877258
ag89
aF0.04547816659442912
ag90
aF0.0
ag91
aF0.07505187039118459
ag92
aF0.017365953973676157
ag93
aF0.07126918734741355
ag94
aF0.04264115431160086
ag95
aF0.032926536494643395
ag96
aF0.03447399773982246
ag97
aF0.041351603273951626
ag98
aF0.0329265364946434
ag99
aF0.03928832161371288
ag100
aF0.07659933163636366
ag101
aF0.0
ag102
aF0.01315342058402204
ag103
aF0.05966322800857055
ag104
aF0.03559160863911844
ag105
aF0.02991758407346189
ag106
aF0.02957370379675543
ag107
aF0.03370026711723292
ag108
aF0.00833909671013162
ag109
aF0.009800587886134067
ag110
aF0.020116996187327825
ag111
aF0.015560582520967248
ag112
aF0.0
ag113
aF0.01487282196755433
ag114
aF0.009628647747780841
ag115
aF0.008081186502601775
ag116
aF0.008425066779308234
ag117
aF0.009456707609427609
ag118
aF0.03318444670217325
ag119
aF0.03696712974594429
ag120
aF0.07169903769329661
ag121
aF0.05974919807774717
ag122
aF0.012723570238138967
ag123
aF0.0
ag124
aF0.033442356909703076
ag125
aF0.028370122828282825
ag126
aF0.02905788338169574
ag127
aF0.033872207255586165
ag128
aF0.02046087646403428
ag129
aF0.02132057715580043
ag130
aF0.04487637611019282
ag131
aF0.03576354877747169
ag132
aF0.008682976986838079
ag133
aF0.03533369843158861
ag134
aF0.0
ag135
aF0.017623864181206
ag136
aF0.019257295495561676
ag137
aF0.02063281660238751
ag138
aF0.016076402936026937
ag139
aF0.01942923563391491
ag140
aF0.036021458985001524
ag141
aF0.03137907524946434
ag142
aF0.007479396018365474
ag143
aF0.030777284765228043
ag144
aF0.01839759480379553
ag145
aF0.0
ag146
aF0.015904462797673706
ag147
aF0.01659222335108662
ag148
aF0.017881774388735838
ag149
aF0.019859085979797974
ag150
aF0.036193399123354765
ag151
aF0.031121165041934493
ag152
aF0.007393425949188858
ag153
aF0.03026146435016835
ag154
aF0.01951520570309152
ag155
aF0.015818492728497092
ag156
aF0.0
ag157
aF0.018827445149678605
ag158
aF0.02089072680991735
ag159
aF0.021406547224977042
ag160
aF0.04470443597183961
ag161
aF0.03584951884664829
ag162
aF0.008597006917661465
ag163
aF0.03507578822405876
ag164
aF0.019859085979797977
ag165
aF0.01710804376614631
ag166
aF0.017623864181206
ag167
aF0.0
ag59
aF0.0
ag61
aF0.021406547224977042
ag63
aF0.04246921417324763
ag65
aF0.03455996780899907
ag67
aF0.007479396018365473
ag69
aF0.03455996780899908
ag71
aF0.02123460708662381
ag73
aF0.016162373005203547
ag75
aF0.017881774388735838
ag77
aF0.02020296625650443
ag78
aF0.021148637017447198
ag79
aF0.0
ag80
aF0.04788532853137434
ag81
aF0.039718171959595955
ag82
aF0.00894088719436792
ag83
aF0.037568920230180596
ag84
aF0.022008337709213344
ag85
aF0.018483564872972147
ag86
aF0.01994505604897459
ag87
aF0.021148637017447198
ag88
aF0.03980414202877258
ag89
aF0.04547816659442912
ag90
aF0.0
ag91
aF0.07505187039118459
ag92
aF0.017365953973676157
ag93
aF0.07126918734741355
ag94
aF0.04264115431160086
ag95
aF0.032926536494643395
ag96
aF0.03447399773982246
ag97
aF0.041351603273951626
ag98
aF0.0329265364946434
ag99
aF0.03928832161371288
ag100
aF0.07659933163636366
ag101
aF0.0
ag102
aF0.01315342058402204
ag103
aF0.05966322800857055
ag104
aF0.03559160863911844
ag105
aF0.02991758407346189
ag106
aF0.02957370379675543
ag107
aF0.03370026711723292
ag108
aF0.00833909671013162
ag109
aF0.009800587886134067
ag110
aF0.020116996187327825
ag111
aF0.015560582520967248
ag112
aF0.0
ag113
aF0.01487282196755433
ag114
aF0.009628647747780841
ag115
aF0.008081186502601775
ag116
aF0.008425066779308234
ag117
aF0.009456707609427609
ag118
aF0.03318444670217325
ag119
aF0.03696712974594429
ag120
aF0.07169903769329661
ag121
aF0.05974919807774717
ag122
aF0.012723570238138967
ag123
aF0.0
ag124
aF0.033442356909703076
ag125
aF0.028370122828282825
ag126
aF0.02905788338169574
ag127
aF0.033872207255586165
ag128
aF0.02046087646403428
ag129
aF0.02132057715580043
ag130
aF0.04487637611019282
ag131
aF0.03576354877747169
ag132
aF0.008682976986838079
ag133
aF0.03533369843158861
ag134
aF0.0
ag135
aF0.017623864181206
ag136
aF0.019257295495561676
ag137
aF0.02063281660238751
ag138
aF0.016076402936026937
ag139
aF0.01942923563391491
ag140
aF0.036021458985001524
ag141
aF0.03137907524946434
ag142
aF0.007479396018365474
ag143
aF0.030777284765228043
ag144
aF0.01839759480379553
ag145
aF0.0
ag146
aF0.015904462797673706
ag147
aF0.01659222335108662
ag148
aF0.017881774388735838
ag149
aF0.019859085979797974
ag150
aF0.036193399123354765
ag151
aF0.031121165041934493
ag152
aF0.007393425949188858
ag153
aF0.03026146435016835
ag154
aF0.01951520570309152
ag155
aF0.015818492728497092
ag156
aF0.0
ag157
aF0.018827445149678605
ag158
aF0.02089072680991735
ag159
aF0.021406547224977042
ag160
aF0.04470443597183961
ag161
aF0.03584951884664829
ag162
aF0.008597006917661465
ag163
aF0.03507578822405876
ag164
aF0.019859085979797977
ag165
aF0.01710804376614631
ag166
aF0.017623864181206
ag167
aF0.0
ag59
aF0.0
ag61
aF0.021406547224977042
ag63
aF0.04246921417324763
ag65
aF0.03455996780899907
ag67
aF0.007479396018365473
ag69
aF0.03455996780899908
ag71
aF0.02123460708662381
ag73
aF0.016162373005203547
ag75
aF0.017881774388735838
ag77
aF0.02020296625650443
ag78
aF0.021148637017447198
ag79
aF0.0
ag80
aF0.04788532853137434
ag81
aF0.039718171959595955
ag82
aF0.00894088719436792
ag83
aF0.037568920230180596
ag84
aF0.022008337709213344
ag85
aF0.018483564872972147
ag86
aF0.01994505604897459
ag87
aF0.021148637017447198
ag88
aF0.03980414202877258
ag89
aF0.04547816659442912
ag90
aF0.0
ag91
aF0.07505187039118459
ag92
aF0.017365953973676157
ag93
aF0.07126918734741355
ag94
aF0.04264115431160086
ag95
aF0.032926536494643395
ag96
aF0.03447399773982246
ag97
aF0.041351603273951626
ag98
aF0.0329265364946434
ag99
aF0.03928832161371288
ag100
aF0.07659933163636366
ag101
aF0.0
ag102
aF0.01315342058402204
ag103
aF0.05966322800857055
ag104
aF0.03559160863911844
ag105
aF0.02991758407346189
ag106
aF0.02957370379675543
ag107
aF0.03370026711723292
ag108
aF0.00833909671013162
ag109
aF0.009800587886134067
ag110
aF0.020116996187327825
ag111
aF0.015560582520967248
ag112
aF0.0
ag113
aF0.01487282196755433
ag114
aF0.009628647747780841
ag115
aF0.008081186502601775
ag116
aF0.008425066779308234
ag117
aF0.009456707609427609
ag118
aF0.03318444670217325
ag119
aF0.03696712974594429
ag120
aF0.07169903769329661
ag121
aF0.05974919807774717
ag122
aF0.012723570238138967
ag123
aF0.0
ag124
aF0.033442356909703076
ag125
aF0.028370122828282825
ag126
aF0.02905788338169574
ag127
aF0.033872207255586165
ag128
aF0.02046087646403428
ag129
aF0.02132057715580043
ag130
aF0.04487637611019282
ag131
aF0.03576354877747169
ag132
aF0.008682976986838079
ag133
aF0.03533369843158861
ag134
aF0.0
ag135
aF0.017623864181206
ag136
aF0.019257295495561676
ag137
aF0.02063281660238751
ag138
aF0.016076402936026937
ag139
aF0.01942923563391491
ag140
aF0.036021458985001524
ag141
aF0.03137907524946434
ag142
aF0.007479396018365474
ag143
aF0.030777284765228043
ag144
aF0.01839759480379553
ag145
aF0.0
ag146
aF0.015904462797673706
ag147
aF0.01659222335108662
ag148
aF0.017881774388735838
ag149
aF0.019859085979797974
ag150
aF0.036193399123354765
ag151
aF0.031121165041934493
ag152
aF0.007393425949188858
ag153
aF0.03026146435016835
ag154
aF0.01951520570309152
ag155
aF0.015818492728497092
ag156
aF0.0
ag157
aF0.018827445149678605
ag158
aF0.02089072680991735
ag159
aF0.021406547224977042
ag160
aF0.04470443597183961
ag161
aF0.03584951884664829
ag162
aF0.008597006917661465
ag163
aF0.03507578822405876
ag164
aF0.019859085979797977
ag165
aF0.01710804376614631
ag166
aF0.017623864181206
ag167
aF0.0
ag59
aF0.0
ag61
aF0.021406547224977042
ag63
aF0.04246921417324763
ag65
aF0.03455996780899907
ag67
aF0.007479396018365473
ag69
aF0.03455996780899908
ag71
aF0.02123460708662381
ag73
aF0.016162373005203547
ag75
aF0.017881774388735838
ag77
aF0.02020296625650443
ag78
aF0.021148637017447198
ag79
aF0.0
ag80
aF0.04788532853137434
ag81
aF0.039718171959595955
ag82
aF0.00894088719436792
ag83
aF0.037568920230180596
ag84
aF0.022008337709213344
ag85
aF0.018483564872972147
ag86
aF0.01994505604897459
ag87
aF0.021148637017447198
ag88
aF0.03980414202877258
ag89
aF0.04547816659442912
ag90
aF0.0
ag91
aF0.07505187039118459
ag92
aF0.017365953973676157
ag93
aF0.07126918734741355
ag94
aF0.04264115431160086
ag95
aF0.032926536494643395
ag96
aF0.03447399773982246
ag97
aF0.041351603273951626
ag98
aF0.0329265364946434
ag99
aF0.03928832161371288
ag100
aF0.07659933163636366
ag101
aF0.0
ag102
aF0.01315342058402204
ag103
aF0.05966322800857055
ag104
aF0.03559160863911844
ag105
aF0.02991758407346189
ag106
aF0.02957370379675543
ag107
aF0.03370026711723292
ag108
aF0.00833909671013162
ag109
aF0.009800587886134067
ag110
aF0.020116996187327825
ag111
aF0.015560582520967248
ag112
aF0.0
ag113
aF0.01487282196755433
ag114
aF0.009628647747780841
ag115
aF0.008081186502601775
ag116
aF0.008425066779308234
ag117
aF0.009456707609427609
ag118
aF0.03318444670217325
ag119
aF0.03696712974594429
ag120
aF0.07169903769329661
ag121
aF0.05974919807774717
ag122
aF0.012723570238138967
ag123
aF0.0
ag124
aF0.033442356909703076
ag125
aF0.028370122828282825
ag126
aF0.02905788338169574
ag127
aF0.033872207255586165
ag128
aF0.02046087646403428
ag129
aF0.02132057715580043
ag130
aF0.04487637611019282
ag131
aF0.03576354877747169
ag132
aF0.008682976986838079
ag133
aF0.03533369843158861
ag134
aF0.0
ag135
aF0.017623864181206
ag136
aF0.019257295495561676
ag137
aF0.02063281660238751
ag138
aF0.016076402936026937
ag139
aF0.01942923563391491
ag140
aF0.036021458985001524
ag141
aF0.03137907524946434
ag142
aF0.007479396018365474
ag143
aF0.030777284765228043
ag144
aF0.01839759480379553
ag145
aF0.0
ag146
aF0.015904462797673706
ag147
aF0.01659222335108662
ag148
aF0.017881774388735838
ag149
aF0.019859085979797974
ag150
aF0.036193399123354765
ag151
aF0.031121165041934493
ag152
aF0.007393425949188858
ag153
aF0.03026146435016835
ag154
aF0.01951520570309152
ag155
aF0.015818492728497092
ag156
aF0.0
ag157
aF0.018827445149678605
ag158
aF0.02089072680991735
ag159
aF0.021406547224977042
ag160
aF0.04470443597183961
ag161
aF0.03584951884664829
ag162
aF0.008597006917661465
ag163
aF0.03507578822405876
ag164
aF0.019859085979797977
ag165
aF0.01710804376614631
ag166
aF0.017623864181206
ag167
aF0.0
ag59
aF0.0
ag61
aF0.021406547224977042
ag63
aF0.04246921417324763
ag65
aF0.03455996780899907
ag67
aF0.007479396018365473
ag69
aF0.03455996780899908
ag71
aF0.02123460708662381
ag73
aF0.016162373005203547
ag75
aF0.017881774388735838
ag77
aF0.02020296625650443
ag78
aF0.021148637017447198
ag79
aF0.0
ag80
aF0.04788532853137434
ag81
aF0.039718171959595955
ag82
aF0.00894088719436792
ag83
aF0.037568920230180596
ag84
aF0.022008337709213344
ag85
aF0.018483564872972147
ag86
aF0.01994505604897459
ag87
aF0.021148637017447198
ag88
aF0.03980414202877258
ag89
aF0.04547816659442912
ag90
aF0.0
ag91
aF0.07505187039118459
ag92
aF0.017365953973676157
ag93
aF0.07126918734741355
ag94
aF0.04264115431160086
ag95
aF0.032926536494643395
ag96
aF0.03447399773982246
ag97
aF0.041351603273951626
ag98
aF0.0329265364946434
ag99
aF0.03928832161371288
ag100
aF0.07659933163636366
ag101
aF0.0
ag102
aF0.01315342058402204
ag103
aF0.05966322800857055
ag104
aF0.03559160863911844
ag105
aF0.02991758407346189
ag106
aF0.02957370379675543
ag107
aF0.03370026711723292
ag108
aF0.00833909671013162
ag109
aF0.009800587886134067
ag110
aF0.020116996187327825
ag111
aF0.015560582520967248
ag112
aF0.0
ag113
aF0.01487282196755433
ag114
aF0.009628647747780841
ag115
aF0.008081186502601775
ag116
aF0.008425066779308234
ag117
aF0.009456707609427609
ag118
aF0.03318444670217325
ag119
aF0.03696712974594429
ag120
aF0.07169903769329661
ag121
aF0.05974919807774717
ag122
aF0.012723570238138967
ag123
aF0.0
ag124
aF0.033442356909703076
ag125
aF0.028370122828282825
ag126
aF0.02905788338169574
ag127
aF0.033872207255586165
ag128
aF0.02046087646403428
ag129
aF0.02132057715580043
ag130
aF0.04487637611019282
ag131
aF0.03576354877747169
ag132
aF0.008682976986838079
ag133
aF0.03533369843158861
ag134
aF0.0
ag135
aF0.017623864181206
ag136
aF0.019257295495561676
ag137
aF0.02063281660238751
ag138
aF0.016076402936026937
ag139
aF0.01942923563391491
ag140
aF0.036021458985001524
ag141
aF0.03137907524946434
ag142
aF0.007479396018365474
ag143
aF0.030777284765228043
ag144
aF0.01839759480379553
ag145
aF0.0
ag146
aF0.015904462797673706
ag147
aF0.01659222335108662
ag148
aF0.017881774388735838
ag149
aF0.019859085979797974
ag150
aF0.036193399123354765
ag151
aF0.031121165041934493
ag152
aF0.007393425949188858
ag153
aF0.03026146435016835
ag154
aF0.01951520570309152
ag155
aF0.015818492728497092
ag156
aF0.0
ag157
aF0.018827445149678605
ag158
aF0.02089072680991735
ag159
aF0.021406547224977042
ag160
aF0.04470443597183961
ag161
aF0.03584951884664829
ag162
aF0.008597006917661465
ag163
aF0.03507578822405876
ag164
aF0.019859085979797977
ag165
aF0.01710804376614631
ag166
aF0.017623864181206
ag167
aF0.0
ag59
aF0.0
ag61
aF0.021406547224977042
ag63
aF0.04246921417324763
ag65
aF0.03455996780899907
ag67
aF0.007479396018365473
ag69
aF0.03455996780899908
ag71
aF0.02123460708662381
ag73
aF0.016162373005203547
ag75
aF0.017881774388735838
ag77
aF0.02020296625650443
ag78
aF0.021148637017447198
ag79
aF0.0
ag80
aF0.04788532853137434
ag81
aF0.039718171959595955
ag82
aF0.00894088719436792
ag83
aF0.037568920230180596
ag84
aF0.022008337709213344
ag85
aF0.018483564872972147
ag86
aF0.01994505604897459
ag87
aF0.021148637017447198
ag88
aF0.03980414202877258
ag89
aF0.04547816659442912
ag90
aF0.0
ag91
aF0.07505187039118459
ag92
aF0.017365953973676157
ag93
aF0.07126918734741355
ag94
aF0.04264115431160086
ag95
aF0.032926536494643395
ag96
aF0.03447399773982246
ag97
aF0.041351603273951626
ag98
aF0.0329265364946434
ag99
aF0.03928832161371288
ag100
aF0.07659933163636366
ag101
aF0.0
ag102
aF0.01315342058402204
ag103
aF0.05966322800857055
ag104
aF0.03559160863911844
ag105
aF0.02991758407346189
ag106
aF0.02957370379675543
ag107
aF0.03370026711723292
ag108
aF0.00833909671013162
ag109
aF0.009800587886134067
ag110
aF0.020116996187327825
ag111
aF0.015560582520967248
ag112
aF0.0
ag113
aF0.01487282196755433
ag114
aF0.009628647747780841
ag115
aF0.008081186502601775
ag116
aF0.008425066779308234
ag117
aF0.009456707609427609
ag118
aF0.03318444670217325
ag119
aF0.03696712974594429
ag120
aF0.07169903769329661
ag121
aF0.05974919807774717
ag122
aF0.012723570238138967
ag123
aF0.0
ag124
aF0.033442356909703076
ag125
aF0.028370122828282825
ag126
aF0.02905788338169574
ag127
aF0.033872207255586165
ag128
aF0.02046087646403428
ag129
aF0.02132057715580043
ag130
aF0.04487637611019282
ag131
aF0.03576354877747169
ag132
aF0.008682976986838079
ag133
aF0.03533369843158861
ag134
aF0.0
ag135
aF0.017623864181206
ag136
aF0.019257295495561676
ag137
aF0.02063281660238751
ag138
aF0.016076402936026937
ag139
aF0.01942923563391491
ag140
aF0.036021458985001524
ag141
aF0.03137907524946434
ag142
aF0.007479396018365474
ag143
aF0.030777284765228043
ag144
aF0.01839759480379553
ag145
aF0.0
ag146
aF0.015904462797673706
ag147
aF0.01659222335108662
ag148
aF0.017881774388735838
ag149
aF0.019859085979797974
ag150
aF0.036193399123354765
ag151
aF0.031121165041934493
ag152
aF0.007393425949188858
ag153
aF0.03026146435016835
ag154
aF0.01951520570309152
ag155
aF0.015818492728497092
ag156
aF0.0
ag157
aF0.018827445149678605
ag158
aF0.02089072680991735
ag159
aF0.021406547224977042
ag160
aF0.04470443597183961
ag161
aF0.03584951884664829
ag162
aF0.008597006917661465
ag163
aF0.03507578822405876
ag164
aF0.019859085979797977
ag165
aF0.01710804376614631
ag166
aF0.017623864181206
ag167
aF0.0
ag59
aF0.0
ag61
aF0.021406547224977042
ag63
aF0.04246921417324763
ag65
aF0.03455996780899907
ag67
aF0.007479396018365473
ag69
aF0.03455996780899908
ag71
aF0.02123460708662381
ag73
aF0.016162373005203547
ag75
aF0.017881774388735838
ag77
aF0.02020296625650443
ag78
aF0.021148637017447198
ag79
aF0.0
ag80
aF0.04788532853137434
ag81
aF0.039718171959595955
ag82
aF0.00894088719436792
ag83
aF0.037568920230180596
ag84
aF0.022008337709213344
ag85
aF0.018483564872972147
ag86
aF0.01994505604897459
ag87
aF0.021148637017447198
ag88
aF0.03980414202877258
ag89
aF0.04547816659442912
ag90
aF0.0
ag91
aF0.07505187039118459
ag92
aF0.017365953973676157
ag93
aF0.07126918734741355
ag94
aF0.04264115431160086
ag95
aF0.032926536494643395
ag96
aF0.03447399773982246
ag97
aF0.041351603273951626
ag98
aF0.0329265364946434
ag99
aF0.03928832161371288
ag100
aF0.07659933163636366
ag101
aF0.0
ag102
aF0.01315342058402204
ag103
aF0.05966322800857055
ag104
aF0.03559160863911844
ag105
aF0.02991758407346189
ag106
aF0.02957370379675543
ag107
aF0.03370026711723292
ag108
aF0.00833909671013162
ag109
aF0.009800587886134067
ag110
aF0.020116996187327825
ag111
aF0.015560582520967248
ag112
aF0.0
ag113
aF0.01487282196755433
ag114
aF0.009628647747780841
ag115
aF0.008081186502601775
ag116
aF0.008425066779308234
ag117
aF0.009456707609427609
ag118
aF0.03318444670217325
ag119
aF0.03696712974594429
ag120
aF0.07169903769329661
ag121
aF0.05974919807774717
ag122
aF0.012723570238138967
ag123
aF0.0
ag124
aF0.033442356909703076
ag125
aF0.028370122828282825
ag126
aF0.02905788338169574
ag127
aF0.033872207255586165
ag128
aF0.02046087646403428
ag129
aF0.02132057715580043
ag130
aF0.04487637611019282
ag131
aF0.03576354877747169
ag132
aF0.008682976986838079
ag133
aF0.03533369843158861
ag134
aF0.0
ag135
aF0.017623864181206
ag136
aF0.019257295495561676
ag137
aF0.02063281660238751
ag138
aF0.016076402936026937
ag139
aF0.01942923563391491
ag140
aF0.036021458985001524
ag141
aF0.03137907524946434
ag142
aF0.007479396018365474
ag143
aF0.030777284765228043
ag144
aF0.01839759480379553
ag145
aF0.0
ag146
aF0.015904462797673706
ag147
aF0.01659222335108662
ag148
aF0.017881774388735838
ag149
aF0.019859085979797974
ag150
aF0.036193399123354765
ag151
aF0.031121165041934493
ag152
aF0.007393425949188858
ag153
aF0.03026146435016835
ag154
aF0.01951520570309152
ag155
aF0.015818492728497092
ag156
aF0.0
ag157
aF0.018827445149678605
ag158
aF0.02089072680991735
ag159
aF0.021406547224977042
ag160
aF0.04470443597183961
ag161
aF0.03584951884664829
ag162
aF0.008597006917661465
ag163
aF0.03507578822405876
ag164
aF0.019859085979797977
ag165
aF0.01710804376614631
ag166
aF0.017623864181206
ag167
aF0.0
ag59
aF0.0
ag61
aF0.021406547224977042
ag63
aF0.04246921417324763
ag65
aF0.03455996780899907
ag67
aF0.007479396018365473
ag69
aF0.03455996780899908
ag71
aF0.02123460708662381
ag73
aF0.016162373005203547
ag75
aF0.017881774388735838
ag77
aF0.02020296625650443
ag78
aF0.021148637017447198
ag79
aF0.0
ag80
aF0.04788532853137434
ag81
aF0.039718171959595955
ag82
aF0.00894088719436792
ag83
aF0.037568920230180596
ag84
aF0.022008337709213344
ag85
aF0.018483564872972147
ag86
aF0.01994505604897459
ag87
aF0.021148637017447198
ag88
aF0.03980414202877258
ag89
aF0.04547816659442912
ag90
aF0.0
ag91
aF0.07505187039118459
ag92
aF0.017365953973676157
ag93
aF0.07126918734741355
ag94
aF0.04264115431160086
ag95
aF0.032926536494643395
ag96
aF0.03447399773982246
ag97
aF0.041351603273951626
ag98
aF0.0329265364946434
ag99
aF0.03928832161371288
ag100
aF0.07659933163636366
ag101
aF0.0
ag102
aF0.01315342058402204
ag103
aF0.05966322800857055
ag104
aF0.03559160863911844
ag105
aF0.02991758407346189
ag106
aF0.02957370379675543
ag107
aF0.03370026711723292
ag108
aF0.00833909671013162
ag109
aF0.009800587886134067
ag110
aF0.020116996187327825
ag111
aF0.015560582520967248
ag112
aF0.0
ag113
aF0.01487282196755433
ag114
aF0.009628647747780841
ag115
aF0.008081186502601775
ag116
aF0.008425066779308234
ag117
aF0.009456707609427609
ag118
aF0.03318444670217325
ag119
aF0.03696712974594429
ag120
aF0.07169903769329661
ag121
aF0.05974919807774717
ag122
aF0.012723570238138967
ag123
aF0.0
ag124
aF0.033442356909703076
ag125
aF0.028370122828282825
ag126
aF0.02905788338169574
ag127
aF0.033872207255586165
ag128
aF0.02046087646403428
ag129
aF0.02132057715580043
ag130
aF0.04487637611019282
ag131
aF0.03576354877747169
ag132
aF0.008682976986838079
ag133
aF0.03533369843158861
ag134
aF0.0
ag135
aF0.017623864181206
ag136
aF0.019257295495561676
ag137
aF0.02063281660238751
ag138
aF0.016076402936026937
ag139
aF0.01942923563391491
ag140
aF0.036021458985001524
ag141
aF0.03137907524946434
ag142
aF0.007479396018365474
ag143
aF0.030777284765228043
ag144
aF0.01839759480379553
ag145
aF0.0
ag146
aF0.015904462797673706
ag147
aF0.01659222335108662
ag148
aF0.017881774388735838
ag149
aF0.019859085979797974
ag150
aF0.036193399123354765
ag151
aF0.031121165041934493
ag152
aF0.007393425949188858
ag153
aF0.03026146435016835
ag154
aF0.01951520570309152
ag155
aF0.015818492728497092
ag156
aF0.0
ag157
aF0.018827445149678605
ag158
aF0.02089072680991735
ag159
aF0.021406547224977042
ag160
aF0.04470443597183961
ag161
aF0.03584951884664829
ag162
aF0.008597006917661465
ag163
aF0.03507578822405876
ag164
aF0.019859085979797977
ag165
aF0.01710804376614631
ag166
aF0.017623864181206
ag167
aF0.0
ag59
aF0.0
ag61
aF0.021406547224977042
ag63
aF0.04246921417324763
ag65
aF0.03455996780899907
ag67
aF0.007479396018365473
ag69
aF0.03455996780899908
ag71
aF0.02123460708662381
ag73
aF0.016162373005203547
ag75
aF0.017881774388735838
ag77
aF0.02020296625650443
ag78
aF0.021148637017447198
ag79
aF0.0
ag80
aF0.04788532853137434
ag81
aF0.039718171959595955
ag82
aF0.00894088719436792
ag83
aF0.037568920230180596
ag84
aF0.022008337709213344
ag85
aF0.018483564872972147
ag86
aF0.01994505604897459
ag87
aF0.021148637017447198
ag88
aF0.03980414202877258
ag89
aF0.04547816659442912
ag90
aF0.0
ag91
aF0.07505187039118459
ag92
aF0.017365953973676157
ag93
aF0.07126918734741355
ag94
aF0.04264115431160086
ag95
aF0.032926536494643395
ag96
aF0.03447399773982246
ag97
aF0.041351603273951626
ag98
aF0.0329265364946434
ag99
aF0.03928832161371288
ag100
aF0.07659933163636366
ag101
aF0.0
ag102
aF0.01315342058402204
ag103
aF0.05966322800857055
ag104
aF0.03559160863911844
ag105
aF0.02991758407346189
ag106
aF0.02957370379675543
ag107
aF0.03370026711723292
ag108
aF0.00833909671013162
ag109
aF0.009800587886134067
ag110
aF0.020116996187327825
ag111
aF0.015560582520967248
ag112
aF0.0
ag113
aF0.01487282196755433
ag114
aF0.009628647747780841
ag115
aF0.008081186502601775
ag116
aF0.008425066779308234
ag117
aF0.009456707609427609
ag118
aF0.03318444670217325
ag119
aF0.03696712974594429
ag120
aF0.07169903769329661
ag121
aF0.05974919807774717
ag122
aF0.012723570238138967
ag123
aF0.0
ag124
aF0.033442356909703076
ag125
aF0.028370122828282825
ag126
aF0.02905788338169574
ag127
aF0.033872207255586165
ag128
aF0.02046087646403428
ag129
aF0.02132057715580043
ag130
aF0.04487637611019282
ag131
aF0.03576354877747169
ag132
aF0.008682976986838079
ag133
aF0.03533369843158861
ag134
aF0.0
ag135
aF0.017623864181206
ag136
aF0.019257295495561676
ag137
aF0.02063281660238751
ag138
aF0.016076402936026937
ag139
aF0.01942923563391491
ag140
aF0.036021458985001524
ag141
aF0.03137907524946434
ag142
aF0.007479396018365474
ag143
aF0.030777284765228043
ag144
aF0.01839759480379553
ag145
aF0.0
ag146
aF0.015904462797673706
ag147
aF0.01659222335108662
ag148
aF0.017881774388735838
ag149
aF0.019859085979797974
ag150
aF0.036193399123354765
ag151
aF0.031121165041934493
ag152
aF0.007393425949188858
ag153
aF0.03026146435016835
ag154
aF0.01951520570309152
ag155
aF0.015818492728497092
ag156
aF0.0
ag157
aF0.018827445149678605
ag158
aF0.02089072680991735
ag159
aF0.021406547224977042
ag160
aF0.04470443597183961
ag161
aF0.03584951884664829
ag162
aF0.008597006917661465
ag163
aF0.03507578822405876
ag164
aF0.019859085979797977
ag165
aF0.01710804376614631
ag166
aF0.017623864181206
ag167
aF0.0
ag59
aF0.0
ag61
aF0.021406547224977042
ag63
aF0.04246921417324763
ag65
aF0.03455996780899907
ag67
aF0.007479396018365473
ag69
aF0.03455996780899908
ag71
aF0.02123460708662381
ag73
aF0.016162373005203547
ag75
aF0.017881774388735838
ag77
aF0.02020296625650443
ag78
aF0.021148637017447198
ag79
aF0.0
ag80
aF0.04788532853137434
ag81
aF0.039718171959595955
ag82
aF0.00894088719436792
ag83
aF0.037568920230180596
ag84
aF0.022008337709213344
ag85
aF0.018483564872972147
ag86
aF0.01994505604897459
ag87
aF0.021148637017447198
ag88
aF0.03980414202877258
ag89
aF0.04547816659442912
ag90
aF0.0
ag91
aF0.07505187039118459
ag92
aF0.017365953973676157
ag93
aF0.07126918734741355
ag94
aF0.04264115431160086
ag95
aF0.032926536494643395
ag96
aF0.03447399773982246
ag97
aF0.041351603273951626
ag98
aF0.0329265364946434
ag99
aF0.03928832161371288
ag100
aF0.07659933163636366
ag101
aF0.0
ag102
aF0.01315342058402204
ag103
aF0.05966322800857055
ag104
aF0.03559160863911844
ag105
aF0.02991758407346189
ag106
aF0.02957370379675543
ag107
aF0.03370026711723292
ag108
aF0.00833909671013162
ag109
aF0.009800587886134067
ag110
aF0.020116996187327825
ag111
aF0.015560582520967248
ag112
aF0.0
ag113
aF0.01487282196755433
ag114
aF0.009628647747780841
ag115
aF0.008081186502601775
ag116
aF0.008425066779308234
ag117
aF0.009456707609427609
ag118
aF0.03318444670217325
ag119
aF0.03696712974594429
ag120
aF0.07169903769329661
ag121
aF0.05974919807774717
ag122
aF0.012723570238138967
ag123
aF0.0
ag124
aF0.033442356909703076
ag125
aF0.028370122828282825
ag126
aF0.02905788338169574
ag127
aF0.033872207255586165
ag128
aF0.02046087646403428
ag129
aF0.02132057715580043
ag130
aF0.04487637611019282
ag131
aF0.03576354877747169
ag132
aF0.008682976986838079
ag133
aF0.03533369843158861
ag134
aF0.0
ag135
aF0.017623864181206
ag136
aF0.019257295495561676
ag137
aF0.02063281660238751
ag138
aF0.016076402936026937
ag139
aF0.01942923563391491
ag140
aF0.036021458985001524
ag141
aF0.03137907524946434
ag142
aF0.007479396018365474
ag143
aF0.030777284765228043
ag144
aF0.01839759480379553
ag145
aF0.0
ag146
aF0.015904462797673706
ag147
aF0.01659222335108662
ag148
aF0.017881774388735838
ag149
aF0.019859085979797974
ag150
aF0.036193399123354765
ag151
aF0.031121165041934493
ag152
aF0.007393425949188858
ag153
aF0.03026146435016835
ag154
aF0.01951520570309152
ag155
aF0.015818492728497092
ag156
aF0.0
ag157
aF0.018827445149678605
ag158
aF0.02089072680991735
ag159
aF0.021406547224977042
ag160
aF0.04470443597183961
ag161
aF0.03584951884664829
ag162
aF0.008597006917661465
ag163
aF0.03507578822405876
ag164
aF0.019859085979797977
ag165
aF0.01710804376614631
ag166
aF0.017623864181206
ag167
aF0.0
atp309
ba(lp310
g10
(g11
(I0
tp311
g13
tp312
Rp313
((I1
(I17
tp314
g20
I00
S'\x00\x00\x00\x00\x00\x00\x00\x00\x01\x00\x00\x00\x00\x00\x00\x00\x02\x00\x00\x00\x00\x00\x00\x00\x03\x00\x00\x00\x00\x00\x00\x00\x04\x00\x00\x00\x00\x00\x00\x00\x05\x00\x00\x00\x00\x00\x00\x00\x06\x00\x00\x00\x00\x00\x00\x00\x07\x00\x00\x00\x00\x00\x00\x00\x08\x00\x00\x00\x00\x00\x00\x00\t\x00\x00\x00\x00\x00\x00\x00\n\x00\x00\x00\x00\x00\x00\x00\x0b\x00\x00\x00\x00\x00\x00\x00\x0c\x00\x00\x00\x00\x00\x00\x00\r\x00\x00\x00\x00\x00\x00\x00\x0e\x00\x00\x00\x00\x00\x00\x00\x0f\x00\x00\x00\x00\x00\x00\x00\x10\x00\x00\x00\x00\x00\x00\x00'
p315
tp316
(Ntp317
tp318
batp319
bba.